
Lab4.elf:     file format elf32-avr

Sections:
Idx Name          Size      VMA       LMA       File off  Algn
  0 .data         0000002e  00800100  00002222  000022b6  2**0
                  CONTENTS, ALLOC, LOAD, DATA
  1 .text         00002222  00000000  00000000  00000094  2**1
                  CONTENTS, ALLOC, LOAD, READONLY, CODE
  2 .bss          000000a8  0080012e  0080012e  000022e4  2**0
                  ALLOC
  3 .stab         00004ff8  00000000  00000000  000022e4  2**2
                  CONTENTS, READONLY, DEBUGGING
  4 .stabstr      000018ef  00000000  00000000  000072dc  2**0
                  CONTENTS, READONLY, DEBUGGING
  5 .comment      00000011  00000000  00000000  00008bcb  2**0
                  CONTENTS, READONLY
  6 .note.gnu.avr.deviceinfo 0000003c  00000000  00000000  00008bdc  2**2
                  CONTENTS, READONLY
  7 .debug_info   00000780  00000000  00000000  00008c18  2**0
                  CONTENTS, READONLY, DEBUGGING
  8 .debug_abbrev 00000718  00000000  00000000  00009398  2**0
                  CONTENTS, READONLY, DEBUGGING
  9 .debug_line   0000001a  00000000  00000000  00009ab0  2**0
                  CONTENTS, READONLY, DEBUGGING
 10 .debug_str    0000027d  00000000  00000000  00009aca  2**0
                  CONTENTS, READONLY, DEBUGGING

Disassembly of section .text:

00000000 <__vectors>:
       0:	0c 94 25 01 	jmp	0x24a	; 0x24a <__ctors_end>
       4:	0c 94 44 01 	jmp	0x288	; 0x288 <__bad_interrupt>
       8:	0c 94 44 01 	jmp	0x288	; 0x288 <__bad_interrupt>
       c:	0c 94 44 01 	jmp	0x288	; 0x288 <__bad_interrupt>
      10:	0c 94 44 01 	jmp	0x288	; 0x288 <__bad_interrupt>
      14:	0c 94 44 01 	jmp	0x288	; 0x288 <__bad_interrupt>
      18:	0c 94 44 01 	jmp	0x288	; 0x288 <__bad_interrupt>
      1c:	0c 94 44 01 	jmp	0x288	; 0x288 <__bad_interrupt>
      20:	0c 94 44 01 	jmp	0x288	; 0x288 <__bad_interrupt>
      24:	0c 94 44 01 	jmp	0x288	; 0x288 <__bad_interrupt>
      28:	0c 94 44 01 	jmp	0x288	; 0x288 <__bad_interrupt>
      2c:	0c 94 44 01 	jmp	0x288	; 0x288 <__bad_interrupt>
      30:	0c 94 96 08 	jmp	0x112c	; 0x112c <__vector_12>
      34:	0c 94 44 01 	jmp	0x288	; 0x288 <__bad_interrupt>
      38:	0c 94 44 01 	jmp	0x288	; 0x288 <__bad_interrupt>
      3c:	0c 94 44 01 	jmp	0x288	; 0x288 <__bad_interrupt>
      40:	0c 94 50 08 	jmp	0x10a0	; 0x10a0 <__vector_16>
      44:	0c 94 44 01 	jmp	0x288	; 0x288 <__bad_interrupt>
      48:	0c 94 44 01 	jmp	0x288	; 0x288 <__bad_interrupt>
      4c:	0c 94 44 01 	jmp	0x288	; 0x288 <__bad_interrupt>
      50:	0c 94 44 01 	jmp	0x288	; 0x288 <__bad_interrupt>
      54:	0c 94 44 01 	jmp	0x288	; 0x288 <__bad_interrupt>
      58:	0c 94 44 01 	jmp	0x288	; 0x288 <__bad_interrupt>
      5c:	0c 94 44 01 	jmp	0x288	; 0x288 <__bad_interrupt>
      60:	0c 94 44 01 	jmp	0x288	; 0x288 <__bad_interrupt>
      64:	0c 94 44 01 	jmp	0x288	; 0x288 <__bad_interrupt>
      68:	0c 94 44 01 	jmp	0x288	; 0x288 <__bad_interrupt>
      6c:	0c 94 44 01 	jmp	0x288	; 0x288 <__bad_interrupt>
      70:	0c 94 44 01 	jmp	0x288	; 0x288 <__bad_interrupt>
      74:	0c 94 44 01 	jmp	0x288	; 0x288 <__bad_interrupt>
      78:	0c 94 44 01 	jmp	0x288	; 0x288 <__bad_interrupt>
      7c:	0c 94 44 01 	jmp	0x288	; 0x288 <__bad_interrupt>
      80:	0c 94 44 01 	jmp	0x288	; 0x288 <__bad_interrupt>
      84:	0c 94 3b 0e 	jmp	0x1c76	; 0x1c76 <__vector_33>
      88:	0c 94 44 01 	jmp	0x288	; 0x288 <__bad_interrupt>
      8c:	7a 01       	movw	r14, r20
      8e:	84 01       	movw	r16, r8
      90:	8e 01       	movw	r16, r28
      92:	98 01       	movw	r18, r16
      94:	a3 01       	movw	r20, r6
      96:	ae 01       	movw	r20, r28
      98:	b9 01       	movw	r22, r18
      9a:	66 01       	movw	r12, r12
      9c:	70 01       	movw	r14, r0
      9e:	0f 03       	fmul	r16, r23
      a0:	07 03       	mulsu	r16, r23
      a2:	02 03       	mulsu	r16, r18
      a4:	2c 03       	fmul	r18, r20
      a6:	1f 03       	fmul	r17, r23
      a8:	27 03       	mulsu	r18, r23
      aa:	17 03       	mulsu	r17, r23
      ac:	e0 02       	muls	r30, r16
      ae:	d8 02       	muls	r29, r24
      b0:	d3 02       	muls	r29, r19
      b2:	cb 02       	muls	r28, r27
      b4:	34 03       	mulsu	r19, r20
      b6:	e8 02       	muls	r30, r24
      b8:	be 02       	muls	r27, r30
      ba:	a6 02       	muls	r26, r22
      bc:	54 03       	mulsu	r21, r20
      be:	fd 02       	muls	r31, r29
      c0:	f5 02       	muls	r31, r21
      c2:	ed 02       	muls	r30, r29
      c4:	74 03       	mulsu	r23, r20
      c6:	ae 02       	muls	r26, r30
      c8:	64 03       	mulsu	r22, r20
      ca:	b6 02       	muls	r27, r22
      cc:	81 03       	fmuls	r16, r17
      ce:	4c 03       	fmul	r20, r20
      d0:	6c 03       	fmul	r22, r20
      d2:	c6 02       	muls	r28, r22
      d4:	44 03       	mulsu	r20, r20
      d6:	3c 03       	fmul	r19, r20
      d8:	5c 03       	fmul	r21, r20
      da:	a1 02       	muls	r26, r17
      dc:	6f 02       	muls	r22, r31
      de:	67 02       	muls	r22, r23
      e0:	77 02       	muls	r23, r23
      e2:	79 03       	fmul	r23, r17
      e4:	5a 02       	muls	r21, r26
      e6:	52 02       	muls	r21, r18
      e8:	7c 02       	muls	r23, r28
      ea:	35 02       	muls	r19, r21
      ec:	99 02       	muls	r25, r25
      ee:	62 02       	muls	r22, r18
      f0:	45 02       	muls	r20, r21
      f2:	3d 02       	muls	r19, r29
      f4:	89 02       	muls	r24, r25
      f6:	4d 02       	muls	r20, r29
      f8:	81 02       	muls	r24, r17
      fa:	2d 02       	muls	r18, r29
      fc:	13 02       	muls	r17, r19
      fe:	91 02       	muls	r25, r17
     100:	03 02       	muls	r16, r19
     102:	fb 01       	movw	r30, r22
     104:	20 02       	muls	r18, r16
     106:	18 02       	muls	r17, r24
     108:	25 02       	muls	r18, r21
     10a:	f6 01       	movw	r30, r12
     10c:	0b 02       	muls	r16, r27
     10e:	de 01       	movw	r26, r28
     110:	ee 01       	movw	r28, r28
     112:	d9 01       	movw	r26, r18
     114:	d1 01       	movw	r26, r2
     116:	c9 01       	movw	r24, r18
     118:	c4 01       	movw	r24, r8
     11a:	e6 01       	movw	r28, r12
     11c:	e5 04       	cpc	r14, r5
     11e:	35 05       	cpc	r19, r5
     120:	d5 04       	cpc	r13, r5
     122:	05 05       	cpc	r16, r5
     124:	b5 04       	cpc	r11, r5
     126:	c5 04       	cpc	r12, r5
     128:	b5 04       	cpc	r11, r5
     12a:	c5 04       	cpc	r12, r5
     12c:	45 05       	cpc	r20, r5
     12e:	e5 04       	cpc	r14, r5
     130:	35 05       	cpc	r19, r5
     132:	d5 04       	cpc	r13, r5
     134:	05 05       	cpc	r16, r5
     136:	f5 04       	cpc	r15, r5
     138:	a5 04       	cpc	r10, r5
     13a:	f5 04       	cpc	r15, r5
     13c:	a5 04       	cpc	r10, r5
     13e:	8d 05       	cpc	r24, r13
     140:	19 06       	cpc	r1, r25
     142:	81 05       	cpc	r24, r1
     144:	99 06       	cpc	r9, r25
     146:	81 05       	cpc	r24, r1
     148:	f9 05       	cpc	r31, r9
     14a:	e9 05       	cpc	r30, r9
     14c:	a5 04       	cpc	r10, r5
     14e:	9d 05       	cpc	r25, r13
     150:	a5 04       	cpc	r10, r5
     152:	cd 05       	cpc	r28, r13
     154:	15 05       	cpc	r17, r5
     156:	69 06       	cpc	r6, r25
     158:	b5 04       	cpc	r11, r5
     15a:	49 06       	cpc	r4, r25
     15c:	55 05       	cpc	r21, r5
     15e:	59 06       	cpc	r5, r25
     160:	65 05       	cpc	r22, r5
     162:	79 06       	cpc	r7, r25
     164:	d9 05       	cpc	r29, r9
     166:	25 05       	cpc	r18, r5
     168:	15 05       	cpc	r17, r5
     16a:	ad 05       	cpc	r26, r13
     16c:	75 05       	cpc	r23, r5
     16e:	e5 04       	cpc	r14, r5
     170:	35 05       	cpc	r19, r5
     172:	d5 04       	cpc	r13, r5
     174:	05 05       	cpc	r16, r5
     176:	b5 04       	cpc	r11, r5
     178:	c5 04       	cpc	r12, r5
     17a:	b5 04       	cpc	r11, r5
     17c:	c5 04       	cpc	r12, r5
     17e:	45 05       	cpc	r20, r5
     180:	e5 04       	cpc	r14, r5
     182:	09 06       	cpc	r0, r25
     184:	25 05       	cpc	r18, r5
     186:	d5 04       	cpc	r13, r5
     188:	f5 04       	cpc	r15, r5
     18a:	a5 04       	cpc	r10, r5
     18c:	f5 04       	cpc	r15, r5
     18e:	a5 04       	cpc	r10, r5
     190:	8d 05       	cpc	r24, r13
     192:	29 06       	cpc	r2, r25
     194:	bd 05       	cpc	r27, r13
     196:	45 05       	cpc	r20, r5
     198:	39 06       	cpc	r3, r25
     19a:	9d 05       	cpc	r25, r13
     19c:	55 05       	cpc	r21, r5
     19e:	65 05       	cpc	r22, r5
     1a0:	15 05       	cpc	r17, r5
     1a2:	25 05       	cpc	r18, r5
     1a4:	89 06       	cpc	r8, r25
     1a6:	75 05       	cpc	r23, r5
     1a8:	7c 0e       	add	r7, r28
     1aa:	53 0e       	add	r5, r19
     1ac:	53 0e       	add	r5, r19
     1ae:	53 0e       	add	r5, r19
     1b0:	53 0e       	add	r5, r19
     1b2:	53 0e       	add	r5, r19
     1b4:	53 0e       	add	r5, r19
     1b6:	53 0e       	add	r5, r19
     1b8:	7c 0e       	add	r7, r28
     1ba:	53 0e       	add	r5, r19
     1bc:	53 0e       	add	r5, r19
     1be:	53 0e       	add	r5, r19
     1c0:	53 0e       	add	r5, r19
     1c2:	53 0e       	add	r5, r19
     1c4:	53 0e       	add	r5, r19
     1c6:	53 0e       	add	r5, r19
     1c8:	86 0e       	add	r8, r22
     1ca:	53 0e       	add	r5, r19
     1cc:	53 0e       	add	r5, r19
     1ce:	53 0e       	add	r5, r19
     1d0:	53 0e       	add	r5, r19
     1d2:	53 0e       	add	r5, r19
     1d4:	53 0e       	add	r5, r19
     1d6:	53 0e       	add	r5, r19
     1d8:	53 0e       	add	r5, r19
     1da:	53 0e       	add	r5, r19
     1dc:	53 0e       	add	r5, r19
     1de:	53 0e       	add	r5, r19
     1e0:	53 0e       	add	r5, r19
     1e2:	53 0e       	add	r5, r19
     1e4:	53 0e       	add	r5, r19
     1e6:	53 0e       	add	r5, r19
     1e8:	86 0e       	add	r8, r22
     1ea:	53 0e       	add	r5, r19
     1ec:	53 0e       	add	r5, r19
     1ee:	53 0e       	add	r5, r19
     1f0:	53 0e       	add	r5, r19
     1f2:	53 0e       	add	r5, r19
     1f4:	53 0e       	add	r5, r19
     1f6:	53 0e       	add	r5, r19
     1f8:	53 0e       	add	r5, r19
     1fa:	53 0e       	add	r5, r19
     1fc:	53 0e       	add	r5, r19
     1fe:	53 0e       	add	r5, r19
     200:	53 0e       	add	r5, r19
     202:	53 0e       	add	r5, r19
     204:	53 0e       	add	r5, r19
     206:	53 0e       	add	r5, r19
     208:	9d 0e       	add	r9, r29
     20a:	53 0e       	add	r5, r19
     20c:	53 0e       	add	r5, r19
     20e:	53 0e       	add	r5, r19
     210:	53 0e       	add	r5, r19
     212:	53 0e       	add	r5, r19
     214:	53 0e       	add	r5, r19
     216:	53 0e       	add	r5, r19
     218:	a1 0e       	add	r10, r17
     21a:	53 0e       	add	r5, r19
     21c:	53 0e       	add	r5, r19
     21e:	53 0e       	add	r5, r19
     220:	53 0e       	add	r5, r19
     222:	53 0e       	add	r5, r19
     224:	53 0e       	add	r5, r19
     226:	53 0e       	add	r5, r19
     228:	53 0e       	add	r5, r19
     22a:	53 0e       	add	r5, r19
     22c:	53 0e       	add	r5, r19
     22e:	53 0e       	add	r5, r19
     230:	53 0e       	add	r5, r19
     232:	53 0e       	add	r5, r19
     234:	53 0e       	add	r5, r19
     236:	53 0e       	add	r5, r19
     238:	af 0e       	add	r10, r31
     23a:	53 0e       	add	r5, r19
     23c:	53 0e       	add	r5, r19
     23e:	53 0e       	add	r5, r19
     240:	53 0e       	add	r5, r19
     242:	53 0e       	add	r5, r19
     244:	53 0e       	add	r5, r19
     246:	53 0e       	add	r5, r19
     248:	6d 0e       	add	r6, r29

0000024a <__ctors_end>:
     24a:	11 24       	eor	r1, r1
     24c:	1f be       	out	0x3f, r1	; 63
     24e:	cf ef       	ldi	r28, 0xFF	; 255
     250:	d0 e1       	ldi	r29, 0x10	; 16
     252:	de bf       	out	0x3e, r29	; 62
     254:	cd bf       	out	0x3d, r28	; 61

00000256 <__do_copy_data>:
     256:	11 e0       	ldi	r17, 0x01	; 1
     258:	a0 e0       	ldi	r26, 0x00	; 0
     25a:	b1 e0       	ldi	r27, 0x01	; 1
     25c:	e2 e2       	ldi	r30, 0x22	; 34
     25e:	f2 e2       	ldi	r31, 0x22	; 34
     260:	00 e0       	ldi	r16, 0x00	; 0
     262:	0b bf       	out	0x3b, r16	; 59
     264:	02 c0       	rjmp	.+4      	; 0x26a <__do_copy_data+0x14>
     266:	07 90       	elpm	r0, Z+
     268:	0d 92       	st	X+, r0
     26a:	ae 32       	cpi	r26, 0x2E	; 46
     26c:	b1 07       	cpc	r27, r17
     26e:	d9 f7       	brne	.-10     	; 0x266 <__do_copy_data+0x10>

00000270 <__do_clear_bss>:
     270:	21 e0       	ldi	r18, 0x01	; 1
     272:	ae e2       	ldi	r26, 0x2E	; 46
     274:	b1 e0       	ldi	r27, 0x01	; 1
     276:	01 c0       	rjmp	.+2      	; 0x27a <.do_clear_bss_start>

00000278 <.do_clear_bss_loop>:
     278:	1d 92       	st	X+, r1

0000027a <.do_clear_bss_start>:
     27a:	a6 3d       	cpi	r26, 0xD6	; 214
     27c:	b2 07       	cpc	r27, r18
     27e:	e1 f7       	brne	.-8      	; 0x278 <.do_clear_bss_loop>
     280:	0e 94 3a 0f 	call	0x1e74	; 0x1e74 <main>
     284:	0c 94 0f 11 	jmp	0x221e	; 0x221e <_exit>

00000288 <__bad_interrupt>:
     288:	0c 94 00 00 	jmp	0	; 0x0 <__vectors>

0000028c <play_note>:
#define B8 0x0005

volatile uint16_t beat;
volatile uint16_t max_beat;
volatile uint8_t  notes;
void play_note(char note, uint8_t flat, uint8_t octave, uint8_t duration) {
     28c:	0f 93       	push	r16
     28e:	1f 93       	push	r17
  //octave must be 0-8 (0 is the lowest, 8 doesn't sound very good)
  //duration is in 64th notes at 120bpm
  //e.g. play_note('D', 1, 0, 16)
  //this would play a Db, octave 0 for 1 quarter note
  //120 bpm (every 32ms inc beat)
  PORTD &= unmute;      //unmute (just in case)
     290:	92 98       	cbi	0x12, 2	; 18
  beat = 0;             //reset the beat counter
     292:	10 92 4c 01 	sts	0x014C, r1	; 0x80014c <beat+0x1>
     296:	10 92 4b 01 	sts	0x014B, r1	; 0x80014b <beat>
  max_beat = duration;  //set the max beat
     29a:	30 e0       	ldi	r19, 0x00	; 0
     29c:	30 93 4a 01 	sts	0x014A, r19	; 0x80014a <max_beat+0x1>
     2a0:	20 93 49 01 	sts	0x0149, r18	; 0x800149 <max_beat>
  switch (octave) {
     2a4:	04 2f       	mov	r16, r20
     2a6:	10 e0       	ldi	r17, 0x00	; 0
     2a8:	09 30       	cpi	r16, 0x09	; 9
     2aa:	11 05       	cpc	r17, r1
     2ac:	28 f0       	brcs	.+10     	; 0x2b8 <play_note+0x2c>
      case 'G': if(flat){OCR1A=Gb8;}
        else {OCR1A=G8;}
	break;
      } 
      break;
    default: OCR1A=0x0000;
     2ae:	1b bc       	out	0x2b, r1	; 43
     2b0:	1a bc       	out	0x2a, r1	; 42
  }
}
     2b2:	1f 91       	pop	r17
     2b4:	0f 91       	pop	r16
     2b6:	08 95       	ret
  //this would play a Db, octave 0 for 1 quarter note
  //120 bpm (every 32ms inc beat)
  PORTD &= unmute;      //unmute (just in case)
  beat = 0;             //reset the beat counter
  max_beat = duration;  //set the max beat
  switch (octave) {
     2b8:	f8 01       	movw	r30, r16
     2ba:	ea 5b       	subi	r30, 0xBA	; 186
     2bc:	ff 4f       	sbci	r31, 0xFF	; 255
      case 'G': if(flat){OCR1A=Gb7;}
        else {OCR1A=G7;}
	break;
      } 
      break;
    case 8: switch (note) {
     2be:	08 2e       	mov	r0, r24
     2c0:	00 0c       	add	r0, r0
     2c2:	99 0b       	sbc	r25, r25
     2c4:	aa 0b       	sbc	r26, r26
     2c6:	bb 0b       	sbc	r27, r27
  //this would play a Db, octave 0 for 1 quarter note
  //120 bpm (every 32ms inc beat)
  PORTD &= unmute;      //unmute (just in case)
  beat = 0;             //reset the beat counter
  max_beat = duration;  //set the max beat
  switch (octave) {
     2c8:	0c 94 d5 10 	jmp	0x21aa	; 0x21aa <__tablejump2__>
      case 'G': if(flat){OCR1A=Gb6;}
        else {OCR1A=G6;}
	break;
      } 
      break;
    case 7: switch (note) {
     2cc:	fc 01       	movw	r30, r24
     2ce:	e1 54       	subi	r30, 0x41	; 65
     2d0:	f1 09       	sbc	r31, r1
     2d2:	e7 30       	cpi	r30, 0x07	; 7
     2d4:	f1 05       	cpc	r31, r1
     2d6:	68 f7       	brcc	.-38     	; 0x2b2 <play_note+0x26>
     2d8:	e1 5b       	subi	r30, 0xB1	; 177
     2da:	ff 4f       	sbci	r31, 0xFF	; 255
     2dc:	0c 94 d5 10 	jmp	0x21aa	; 0x21aa <__tablejump2__>
      case 'G': if(flat){OCR1A=Gb7;}
        else {OCR1A=G7;}
	break;
      } 
      break;
    case 8: switch (note) {
     2e0:	fc 01       	movw	r30, r24
     2e2:	e1 54       	subi	r30, 0x41	; 65
     2e4:	f1 09       	sbc	r31, r1
     2e6:	e7 30       	cpi	r30, 0x07	; 7
     2e8:	f1 05       	cpc	r31, r1
     2ea:	18 f7       	brcc	.-58     	; 0x2b2 <play_note+0x26>
     2ec:	ea 5a       	subi	r30, 0xAA	; 170
     2ee:	ff 4f       	sbci	r31, 0xFF	; 255
     2f0:	0c 94 d5 10 	jmp	0x21aa	; 0x21aa <__tablejump2__>
  //120 bpm (every 32ms inc beat)
  PORTD &= unmute;      //unmute (just in case)
  beat = 0;             //reset the beat counter
  max_beat = duration;  //set the max beat
  switch (octave) {
    case 0: switch (note) {
     2f4:	fc 01       	movw	r30, r24
     2f6:	e1 54       	subi	r30, 0x41	; 65
     2f8:	f1 09       	sbc	r31, r1
     2fa:	e7 30       	cpi	r30, 0x07	; 7
     2fc:	f1 05       	cpc	r31, r1
     2fe:	c8 f6       	brcc	.-78     	; 0x2b2 <play_note+0x26>
     300:	e3 5a       	subi	r30, 0xA3	; 163
     302:	ff 4f       	sbci	r31, 0xFF	; 255
     304:	0c 94 d5 10 	jmp	0x21aa	; 0x21aa <__tablejump2__>
      case 'G': if(flat){OCR1A=Gb0;}
        else {OCR1A=G0;}
	break;
      } 
      break;
    case 1: switch (note) {
     308:	fc 01       	movw	r30, r24
     30a:	e1 54       	subi	r30, 0x41	; 65
     30c:	f1 09       	sbc	r31, r1
     30e:	e7 30       	cpi	r30, 0x07	; 7
     310:	f1 05       	cpc	r31, r1
     312:	78 f6       	brcc	.-98     	; 0x2b2 <play_note+0x26>
     314:	ec 59       	subi	r30, 0x9C	; 156
     316:	ff 4f       	sbci	r31, 0xFF	; 255
     318:	0c 94 d5 10 	jmp	0x21aa	; 0x21aa <__tablejump2__>
      case 'G': if(flat){OCR1A=Gb1;}
        else {OCR1A=G1;}
	break;
      } 
      break;
    case 2: switch (note) {
     31c:	fc 01       	movw	r30, r24
     31e:	e1 54       	subi	r30, 0x41	; 65
     320:	f1 09       	sbc	r31, r1
     322:	e7 30       	cpi	r30, 0x07	; 7
     324:	f1 05       	cpc	r31, r1
     326:	28 f6       	brcc	.-118    	; 0x2b2 <play_note+0x26>
     328:	e5 59       	subi	r30, 0x95	; 149
     32a:	ff 4f       	sbci	r31, 0xFF	; 255
     32c:	0c 94 d5 10 	jmp	0x21aa	; 0x21aa <__tablejump2__>
      case 'G': if(flat){OCR1A=Gb2;}
        else {OCR1A=G2;}
	break;
      } 
      break;
    case 3: switch (note) {
     330:	fc 01       	movw	r30, r24
     332:	e1 54       	subi	r30, 0x41	; 65
     334:	f1 09       	sbc	r31, r1
     336:	e7 30       	cpi	r30, 0x07	; 7
     338:	f1 05       	cpc	r31, r1
     33a:	08 f0       	brcs	.+2      	; 0x33e <play_note+0xb2>
     33c:	ba cf       	rjmp	.-140    	; 0x2b2 <play_note+0x26>
     33e:	ee 58       	subi	r30, 0x8E	; 142
     340:	ff 4f       	sbci	r31, 0xFF	; 255
     342:	0c 94 d5 10 	jmp	0x21aa	; 0x21aa <__tablejump2__>
      case 'G': if(flat){OCR1A=Gb3;}
        else {OCR1A=G3;}
	break;
      } 
      break;
    case 4: switch (note) {
     346:	fc 01       	movw	r30, r24
     348:	e1 54       	subi	r30, 0x41	; 65
     34a:	f1 09       	sbc	r31, r1
     34c:	e7 30       	cpi	r30, 0x07	; 7
     34e:	f1 05       	cpc	r31, r1
     350:	08 f0       	brcs	.+2      	; 0x354 <play_note+0xc8>
     352:	af cf       	rjmp	.-162    	; 0x2b2 <play_note+0x26>
     354:	e7 58       	subi	r30, 0x87	; 135
     356:	ff 4f       	sbci	r31, 0xFF	; 255
     358:	0c 94 d5 10 	jmp	0x21aa	; 0x21aa <__tablejump2__>
      case 'G': if(flat){OCR1A=Gb4;}
        else {OCR1A=G4;}
	break;
      } 
      break;
    case 5: switch (note) {
     35c:	fc 01       	movw	r30, r24
     35e:	e1 54       	subi	r30, 0x41	; 65
     360:	f1 09       	sbc	r31, r1
     362:	e7 30       	cpi	r30, 0x07	; 7
     364:	f1 05       	cpc	r31, r1
     366:	08 f0       	brcs	.+2      	; 0x36a <play_note+0xde>
     368:	a4 cf       	rjmp	.-184    	; 0x2b2 <play_note+0x26>
     36a:	e0 58       	subi	r30, 0x80	; 128
     36c:	ff 4f       	sbci	r31, 0xFF	; 255
     36e:	0c 94 d5 10 	jmp	0x21aa	; 0x21aa <__tablejump2__>
      case 'G': if(flat){OCR1A=Gb5;}
        else {OCR1A=G5;}
	break;
      } 
      break;
    case 6: switch (note) {
     372:	fc 01       	movw	r30, r24
     374:	e1 54       	subi	r30, 0x41	; 65
     376:	f1 09       	sbc	r31, r1
     378:	e7 30       	cpi	r30, 0x07	; 7
     37a:	f1 05       	cpc	r31, r1
     37c:	08 f0       	brcs	.+2      	; 0x380 <play_note+0xf4>
     37e:	99 cf       	rjmp	.-206    	; 0x2b2 <play_note+0x26>
     380:	e9 57       	subi	r30, 0x79	; 121
     382:	ff 4f       	sbci	r31, 0xFF	; 255
     384:	0c 94 d5 10 	jmp	0x21aa	; 0x21aa <__tablejump2__>
        else {OCR1A=D6;}
	break;
      case 'E': if(flat){OCR1A=Eb6;}
        else {OCR1A=E6;}
	break;
      case 'F': OCR1A=F6;
     388:	88 e5       	ldi	r24, 0x58	; 88
     38a:	90 e0       	ldi	r25, 0x00	; 0
     38c:	9b bd       	out	0x2b, r25	; 43
     38e:	8a bd       	out	0x2a, r24	; 42
	break;
     390:	90 cf       	rjmp	.-224    	; 0x2b2 <play_note+0x26>
      case 'C': OCR1A=C6;
	break;
      case 'D': if(flat){OCR1A=Db6;}
        else {OCR1A=D6;}
	break;
      case 'E': if(flat){OCR1A=Eb6;}
     392:	66 23       	and	r22, r22
     394:	09 f4       	brne	.+2      	; 0x398 <play_note+0x10c>
     396:	0f c2       	rjmp	.+1054   	; 0x7b6 <__LOCK_REGION_LENGTH__+0x3b6>
     398:	83 e6       	ldi	r24, 0x63	; 99
     39a:	90 e0       	ldi	r25, 0x00	; 0
     39c:	9b bd       	out	0x2b, r25	; 43
     39e:	8a bd       	out	0x2a, r24	; 42
     3a0:	88 cf       	rjmp	.-240    	; 0x2b2 <play_note+0x26>
      case 'B': if(flat){OCR1A=Bb6;}
        else {OCR1A=B6;}
	break;
      case 'C': OCR1A=C6;
	break;
      case 'D': if(flat){OCR1A=Db6;}
     3a2:	66 23       	and	r22, r22
     3a4:	09 f4       	brne	.+2      	; 0x3a8 <play_note+0x11c>
     3a6:	11 c2       	rjmp	.+1058   	; 0x7ca <__LOCK_REGION_LENGTH__+0x3ca>
     3a8:	8f e6       	ldi	r24, 0x6F	; 111
     3aa:	90 e0       	ldi	r25, 0x00	; 0
     3ac:	9b bd       	out	0x2b, r25	; 43
     3ae:	8a bd       	out	0x2a, r24	; 42
     3b0:	80 cf       	rjmp	.-256    	; 0x2b2 <play_note+0x26>
        else {OCR1A=A6;}
	break;
      case 'B': if(flat){OCR1A=Bb6;}
        else {OCR1A=B6;}
	break;
      case 'C': OCR1A=C6;
     3b2:	86 e7       	ldi	r24, 0x76	; 118
     3b4:	90 e0       	ldi	r25, 0x00	; 0
     3b6:	9b bd       	out	0x2b, r25	; 43
     3b8:	8a bd       	out	0x2a, r24	; 42
	break;
     3ba:	7b cf       	rjmp	.-266    	; 0x2b2 <play_note+0x26>
        else {OCR1A=G5;}
	break;
      } 
      break;
    case 6: switch (note) {
      case 'A': if(flat){OCR1A=Ab6;}
     3bc:	66 23       	and	r22, r22
     3be:	09 f4       	brne	.+2      	; 0x3c2 <play_note+0x136>
     3c0:	ff c1       	rjmp	.+1022   	; 0x7c0 <__LOCK_REGION_LENGTH__+0x3c0>
     3c2:	8a e4       	ldi	r24, 0x4A	; 74
     3c4:	90 e0       	ldi	r25, 0x00	; 0
     3c6:	9b bd       	out	0x2b, r25	; 43
     3c8:	8a bd       	out	0x2a, r24	; 42
     3ca:	73 cf       	rjmp	.-282    	; 0x2b2 <play_note+0x26>
      case 'E': if(flat){OCR1A=Eb6;}
        else {OCR1A=E6;}
	break;
      case 'F': OCR1A=F6;
	break;
      case 'G': if(flat){OCR1A=Gb6;}
     3cc:	66 23       	and	r22, r22
     3ce:	09 f4       	brne	.+2      	; 0x3d2 <play_note+0x146>
     3d0:	01 c2       	rjmp	.+1026   	; 0x7d4 <__LOCK_REGION_LENGTH__+0x3d4>
     3d2:	83 e5       	ldi	r24, 0x53	; 83
     3d4:	90 e0       	ldi	r25, 0x00	; 0
     3d6:	9b bd       	out	0x2b, r25	; 43
     3d8:	8a bd       	out	0x2a, r24	; 42
     3da:	6b cf       	rjmp	.-298    	; 0x2b2 <play_note+0x26>
      break;
    case 6: switch (note) {
      case 'A': if(flat){OCR1A=Ab6;}
        else {OCR1A=A6;}
	break;
      case 'B': if(flat){OCR1A=Bb6;}
     3dc:	66 23       	and	r22, r22
     3de:	09 f4       	brne	.+2      	; 0x3e2 <play_note+0x156>
     3e0:	b8 c1       	rjmp	.+880    	; 0x752 <__LOCK_REGION_LENGTH__+0x352>
     3e2:	82 e4       	ldi	r24, 0x42	; 66
     3e4:	90 e0       	ldi	r25, 0x00	; 0
     3e6:	9b bd       	out	0x2b, r25	; 43
     3e8:	8a bd       	out	0x2a, r24	; 42
     3ea:	63 cf       	rjmp	.-314    	; 0x2b2 <play_note+0x26>
        else {OCR1A=D5;}
	break;
      case 'E': if(flat){OCR1A=Eb5;}
        else {OCR1A=E5;}
	break;
      case 'F': OCR1A=F5;
     3ec:	81 eb       	ldi	r24, 0xB1	; 177
     3ee:	90 e0       	ldi	r25, 0x00	; 0
     3f0:	9b bd       	out	0x2b, r25	; 43
     3f2:	8a bd       	out	0x2a, r24	; 42
	break;
     3f4:	5e cf       	rjmp	.-324    	; 0x2b2 <play_note+0x26>
      break;
    case 5: switch (note) {
      case 'A': if(flat){OCR1A=Ab5;}
        else {OCR1A=A5;}
	break;
      case 'B': if(flat){OCR1A=Bb5;}
     3f6:	66 23       	and	r22, r22
     3f8:	09 f4       	brne	.+2      	; 0x3fc <play_note+0x170>
     3fa:	d3 c1       	rjmp	.+934    	; 0x7a2 <__LOCK_REGION_LENGTH__+0x3a2>
     3fc:	85 e8       	ldi	r24, 0x85	; 133
     3fe:	90 e0       	ldi	r25, 0x00	; 0
     400:	9b bd       	out	0x2b, r25	; 43
     402:	8a bd       	out	0x2a, r24	; 42
     404:	56 cf       	rjmp	.-340    	; 0x2b2 <play_note+0x26>
        else {OCR1A=G4;}
	break;
      } 
      break;
    case 5: switch (note) {
      case 'A': if(flat){OCR1A=Ab5;}
     406:	66 23       	and	r22, r22
     408:	09 f4       	brne	.+2      	; 0x40c <__LOCK_REGION_LENGTH__+0xc>
     40a:	c1 c1       	rjmp	.+898    	; 0x78e <__LOCK_REGION_LENGTH__+0x38e>
     40c:	85 e9       	ldi	r24, 0x95	; 149
     40e:	90 e0       	ldi	r25, 0x00	; 0
     410:	9b bd       	out	0x2b, r25	; 43
     412:	8a bd       	out	0x2a, r24	; 42
     414:	4e cf       	rjmp	.-356    	; 0x2b2 <play_note+0x26>
      case 'E': if(flat){OCR1A=Eb5;}
        else {OCR1A=E5;}
	break;
      case 'F': OCR1A=F5;
	break;
      case 'G': if(flat){OCR1A=Gb5;}
     416:	66 23       	and	r22, r22
     418:	09 f4       	brne	.+2      	; 0x41c <__LOCK_REGION_LENGTH__+0x1c>
     41a:	be c1       	rjmp	.+892    	; 0x798 <__LOCK_REGION_LENGTH__+0x398>
     41c:	87 ea       	ldi	r24, 0xA7	; 167
     41e:	90 e0       	ldi	r25, 0x00	; 0
     420:	9b bd       	out	0x2b, r25	; 43
     422:	8a bd       	out	0x2a, r24	; 42
     424:	46 cf       	rjmp	.-372    	; 0x2b2 <play_note+0x26>
        else {OCR1A=D4;}
	break;
      case 'E': if(flat){OCR1A=Eb4;}
        else {OCR1A=E4;}
	break;
      case 'F': OCR1A=F4;
     426:	84 e6       	ldi	r24, 0x64	; 100
     428:	91 e0       	ldi	r25, 0x01	; 1
     42a:	9b bd       	out	0x2b, r25	; 43
     42c:	8a bd       	out	0x2a, r24	; 42
	break;
     42e:	41 cf       	rjmp	.-382    	; 0x2b2 <play_note+0x26>
      case 'B': if(flat){OCR1A=Bb5;}
        else {OCR1A=B5;}
	break;
      case 'C': OCR1A=C5;
	break;
      case 'D': if(flat){OCR1A=Db5;}
     430:	66 23       	and	r22, r22
     432:	09 f4       	brne	.+2      	; 0x436 <__LOCK_REGION_LENGTH__+0x36>
     434:	bb c1       	rjmp	.+886    	; 0x7ac <__LOCK_REGION_LENGTH__+0x3ac>
     436:	80 ee       	ldi	r24, 0xE0	; 224
     438:	90 e0       	ldi	r25, 0x00	; 0
     43a:	9b bd       	out	0x2b, r25	; 43
     43c:	8a bd       	out	0x2a, r24	; 42
     43e:	39 cf       	rjmp	.-398    	; 0x2b2 <play_note+0x26>
        else {OCR1A=A5;}
	break;
      case 'B': if(flat){OCR1A=Bb5;}
        else {OCR1A=B5;}
	break;
      case 'C': OCR1A=C5;
     440:	8d ee       	ldi	r24, 0xED	; 237
     442:	90 e0       	ldi	r25, 0x00	; 0
     444:	9b bd       	out	0x2b, r25	; 43
     446:	8a bd       	out	0x2a, r24	; 42
	break;
     448:	34 cf       	rjmp	.-408    	; 0x2b2 <play_note+0x26>
      case 'D': if(flat){OCR1A=Db5;}
        else {OCR1A=D5;}
	break;
      case 'E': if(flat){OCR1A=Eb5;}
     44a:	66 23       	and	r22, r22
     44c:	09 f4       	brne	.+2      	; 0x450 <__LOCK_REGION_LENGTH__+0x50>
     44e:	8b c1       	rjmp	.+790    	; 0x766 <__LOCK_REGION_LENGTH__+0x366>
     450:	87 ec       	ldi	r24, 0xC7	; 199
     452:	90 e0       	ldi	r25, 0x00	; 0
     454:	9b bd       	out	0x2b, r25	; 43
     456:	8a bd       	out	0x2a, r24	; 42
     458:	2c cf       	rjmp	.-424    	; 0x2b2 <play_note+0x26>
      case 'C': OCR1A=C4;
	break;
      case 'D': if(flat){OCR1A=Db4;}
        else {OCR1A=D4;}
	break;
      case 'E': if(flat){OCR1A=Eb4;}
     45a:	66 23       	and	r22, r22
     45c:	09 f4       	brne	.+2      	; 0x460 <__LOCK_REGION_LENGTH__+0x60>
     45e:	74 c1       	rjmp	.+744    	; 0x748 <__LOCK_REGION_LENGTH__+0x348>
     460:	80 e9       	ldi	r24, 0x90	; 144
     462:	91 e0       	ldi	r25, 0x01	; 1
     464:	9b bd       	out	0x2b, r25	; 43
     466:	8a bd       	out	0x2a, r24	; 42
     468:	24 cf       	rjmp	.-440    	; 0x2b2 <play_note+0x26>
      case 'B': if(flat){OCR1A=Bb3;}
        else {OCR1A=B3;}
	break;
      case 'C': OCR1A=C3;
	break;
      case 'D': if(flat){OCR1A=Db3;}
     46a:	66 23       	and	r22, r22
     46c:	09 f4       	brne	.+2      	; 0x470 <__LOCK_REGION_LENGTH__+0x70>
     46e:	cb c1       	rjmp	.+918    	; 0x806 <__LOCK_REGION_LENGTH__+0x406>
     470:	84 e8       	ldi	r24, 0x84	; 132
     472:	93 e0       	ldi	r25, 0x03	; 3
     474:	9b bd       	out	0x2b, r25	; 43
     476:	8a bd       	out	0x2a, r24	; 42
     478:	1c cf       	rjmp	.-456    	; 0x2b2 <play_note+0x26>
        else {OCR1A=G3;}
	break;
      } 
      break;
    case 4: switch (note) {
      case 'A': if(flat){OCR1A=Ab4;}
     47a:	66 23       	and	r22, r22
     47c:	09 f4       	brne	.+2      	; 0x480 <__LOCK_REGION_LENGTH__+0x80>
     47e:	af c1       	rjmp	.+862    	; 0x7de <__LOCK_REGION_LENGTH__+0x3de>
     480:	8b e2       	ldi	r24, 0x2B	; 43
     482:	91 e0       	ldi	r25, 0x01	; 1
     484:	9b bd       	out	0x2b, r25	; 43
     486:	8a bd       	out	0x2a, r24	; 42
     488:	14 cf       	rjmp	.-472    	; 0x2b2 <play_note+0x26>
      case 'E': if(flat){OCR1A=Eb3;}
        else {OCR1A=E3;}
	break;
      case 'F': OCR1A=F3;
	break;
      case 'G': if(flat){OCR1A=Gb3;}
     48a:	66 23       	and	r22, r22
     48c:	09 f4       	brne	.+2      	; 0x490 <__LOCK_REGION_LENGTH__+0x90>
     48e:	b1 c1       	rjmp	.+866    	; 0x7f2 <__LOCK_REGION_LENGTH__+0x3f2>
     490:	82 ea       	ldi	r24, 0xA2	; 162
     492:	92 e0       	ldi	r25, 0x02	; 2
     494:	9b bd       	out	0x2b, r25	; 43
     496:	8a bd       	out	0x2a, r24	; 42
     498:	0c cf       	rjmp	.-488    	; 0x2b2 <play_note+0x26>
        else {OCR1A=A4;}
	break;
      case 'B': if(flat){OCR1A=Bb4;}
        else {OCR1A=B4;}
	break;
      case 'C': OCR1A=C4;
     49a:	8c ed       	ldi	r24, 0xDC	; 220
     49c:	91 e0       	ldi	r25, 0x01	; 1
     49e:	9b bd       	out	0x2b, r25	; 43
     4a0:	8a bd       	out	0x2a, r24	; 42
	break;
     4a2:	07 cf       	rjmp	.-498    	; 0x2b2 <play_note+0x26>
      break;
    case 3: switch (note) {
      case 'A': if(flat){OCR1A=Ab3;}
        else {OCR1A=A3;}
	break;
      case 'B': if(flat){OCR1A=Bb3;}
     4a4:	66 23       	and	r22, r22
     4a6:	09 f4       	brne	.+2      	; 0x4aa <__LOCK_REGION_LENGTH__+0xaa>
     4a8:	59 c1       	rjmp	.+690    	; 0x75c <__LOCK_REGION_LENGTH__+0x35c>
     4aa:	87 e1       	ldi	r24, 0x17	; 23
     4ac:	92 e0       	ldi	r25, 0x02	; 2
     4ae:	9b bd       	out	0x2b, r25	; 43
     4b0:	8a bd       	out	0x2a, r24	; 42
     4b2:	ff ce       	rjmp	.-514    	; 0x2b2 <play_note+0x26>
        else {OCR1A=G2;}
	break;
      } 
      break;
    case 3: switch (note) {
      case 'A': if(flat){OCR1A=Ab3;}
     4b4:	66 23       	and	r22, r22
     4b6:	09 f4       	brne	.+2      	; 0x4ba <__LOCK_REGION_LENGTH__+0xba>
     4b8:	b0 c1       	rjmp	.+864    	; 0x81a <__LOCK_REGION_LENGTH__+0x41a>
     4ba:	88 e5       	ldi	r24, 0x58	; 88
     4bc:	92 e0       	ldi	r25, 0x02	; 2
     4be:	9b bd       	out	0x2b, r25	; 43
     4c0:	8a bd       	out	0x2a, r24	; 42
     4c2:	f7 ce       	rjmp	.-530    	; 0x2b2 <play_note+0x26>
        else {OCR1A=D3;}
	break;
      case 'E': if(flat){OCR1A=Eb3;}
        else {OCR1A=E3;}
	break;
      case 'F': OCR1A=F3;
     4c4:	8a ec       	ldi	r24, 0xCA	; 202
     4c6:	92 e0       	ldi	r25, 0x02	; 2
     4c8:	9b bd       	out	0x2b, r25	; 43
     4ca:	8a bd       	out	0x2a, r24	; 42
	break;
     4cc:	f2 ce       	rjmp	.-540    	; 0x2b2 <play_note+0x26>
      case 'C': OCR1A=C2;
	break;
      case 'D': if(flat){OCR1A=Db2;}
        else {OCR1A=D2;}
	break;
      case 'E': if(flat){OCR1A=Eb2;}
     4ce:	66 23       	and	r22, r22
     4d0:	09 f4       	brne	.+2      	; 0x4d4 <__LOCK_REGION_LENGTH__+0xd4>
     4d2:	35 c1       	rjmp	.+618    	; 0x73e <__LOCK_REGION_LENGTH__+0x33e>
     4d4:	86 e4       	ldi	r24, 0x46	; 70
     4d6:	96 e0       	ldi	r25, 0x06	; 6
     4d8:	9b bd       	out	0x2b, r25	; 43
     4da:	8a bd       	out	0x2a, r24	; 42
     4dc:	ea ce       	rjmp	.-556    	; 0x2b2 <play_note+0x26>
      case 'B': if(flat){OCR1A=Bb2;}
        else {OCR1A=B2;}
	break;
      case 'C': OCR1A=C2;
	break;
      case 'D': if(flat){OCR1A=Db2;}
     4de:	66 23       	and	r22, r22
     4e0:	09 f4       	brne	.+2      	; 0x4e4 <__LOCK_REGION_LENGTH__+0xe4>
     4e2:	82 c1       	rjmp	.+772    	; 0x7e8 <__LOCK_REGION_LENGTH__+0x3e8>
     4e4:	8a e0       	ldi	r24, 0x0A	; 10
     4e6:	97 e0       	ldi	r25, 0x07	; 7
     4e8:	9b bd       	out	0x2b, r25	; 43
     4ea:	8a bd       	out	0x2a, r24	; 42
     4ec:	e2 ce       	rjmp	.-572    	; 0x2b2 <play_note+0x26>
        else {OCR1A=D2;}
	break;
      case 'E': if(flat){OCR1A=Eb2;}
        else {OCR1A=E2;}
	break;
      case 'F': OCR1A=F2;
     4ee:	86 e9       	ldi	r24, 0x96	; 150
     4f0:	95 e0       	ldi	r25, 0x05	; 5
     4f2:	9b bd       	out	0x2b, r25	; 43
     4f4:	8a bd       	out	0x2a, r24	; 42
	break;
     4f6:	dd ce       	rjmp	.-582    	; 0x2b2 <play_note+0x26>
        else {OCR1A=A3;}
	break;
      case 'B': if(flat){OCR1A=Bb3;}
        else {OCR1A=B3;}
	break;
      case 'C': OCR1A=C3;
     4f8:	8a eb       	ldi	r24, 0xBA	; 186
     4fa:	93 e0       	ldi	r25, 0x03	; 3
     4fc:	9b bd       	out	0x2b, r25	; 43
     4fe:	8a bd       	out	0x2a, r24	; 42
	break;
     500:	d8 ce       	rjmp	.-592    	; 0x2b2 <play_note+0x26>
      case 'B': if(flat){OCR1A=Bb4;}
        else {OCR1A=B4;}
	break;
      case 'C': OCR1A=C4;
	break;
      case 'D': if(flat){OCR1A=Db4;}
     502:	66 23       	and	r22, r22
     504:	09 f4       	brne	.+2      	; 0x508 <__LOCK_REGION_LENGTH__+0x108>
     506:	7a c1       	rjmp	.+756    	; 0x7fc <__LOCK_REGION_LENGTH__+0x3fc>
     508:	81 ec       	ldi	r24, 0xC1	; 193
     50a:	91 e0       	ldi	r25, 0x01	; 1
     50c:	9b bd       	out	0x2b, r25	; 43
     50e:	8a bd       	out	0x2a, r24	; 42
     510:	d0 ce       	rjmp	.-608    	; 0x2b2 <play_note+0x26>
      break;
    case 4: switch (note) {
      case 'A': if(flat){OCR1A=Ab4;}
        else {OCR1A=A4;}
	break;
      case 'B': if(flat){OCR1A=Bb4;}
     512:	66 23       	and	r22, r22
     514:	09 f4       	brne	.+2      	; 0x518 <__LOCK_REGION_LENGTH__+0x118>
     516:	7c c1       	rjmp	.+760    	; 0x810 <__LOCK_REGION_LENGTH__+0x410>
     518:	8b e0       	ldi	r24, 0x0B	; 11
     51a:	91 e0       	ldi	r25, 0x01	; 1
     51c:	9b bd       	out	0x2b, r25	; 43
     51e:	8a bd       	out	0x2a, r24	; 42
     520:	c8 ce       	rjmp	.-624    	; 0x2b2 <play_note+0x26>
      case 'E': if(flat){OCR1A=Eb4;}
        else {OCR1A=E4;}
	break;
      case 'F': OCR1A=F4;
	break;
      case 'G': if(flat){OCR1A=Gb4;}
     522:	66 23       	and	r22, r22
     524:	09 f4       	brne	.+2      	; 0x528 <__LOCK_REGION_LENGTH__+0x128>
     526:	7e c1       	rjmp	.+764    	; 0x824 <__LOCK_REGION_LENGTH__+0x424>
     528:	80 e5       	ldi	r24, 0x50	; 80
     52a:	91 e0       	ldi	r25, 0x01	; 1
     52c:	9b bd       	out	0x2b, r25	; 43
     52e:	8a bd       	out	0x2a, r24	; 42
     530:	c0 ce       	rjmp	.-640    	; 0x2b2 <play_note+0x26>
      case 'C': OCR1A=C3;
	break;
      case 'D': if(flat){OCR1A=Db3;}
        else {OCR1A=D3;}
	break;
      case 'E': if(flat){OCR1A=Eb3;}
     532:	66 23       	and	r22, r22
     534:	09 f4       	brne	.+2      	; 0x538 <__LOCK_REGION_LENGTH__+0x138>
     536:	ad c1       	rjmp	.+858    	; 0x892 <__LOCK_REGION_LENGTH__+0x492>
     538:	82 e2       	ldi	r24, 0x22	; 34
     53a:	93 e0       	ldi	r25, 0x03	; 3
     53c:	9b bd       	out	0x2b, r25	; 43
     53e:	8a bd       	out	0x2a, r24	; 42
     540:	b8 ce       	rjmp	.-656    	; 0x2b2 <play_note+0x26>
        else {OCR1A=A2;}
	break;
      case 'B': if(flat){OCR1A=Bb2;}
        else {OCR1A=B2;}
	break;
      case 'C': OCR1A=C2;
     542:	86 e7       	ldi	r24, 0x76	; 118
     544:	97 e0       	ldi	r25, 0x07	; 7
     546:	9b bd       	out	0x2b, r25	; 43
     548:	8a bd       	out	0x2a, r24	; 42
	break;
     54a:	b3 ce       	rjmp	.-666    	; 0x2b2 <play_note+0x26>
  PORTD &= unmute;      //unmute (just in case)
  beat = 0;             //reset the beat counter
  max_beat = duration;  //set the max beat
  switch (octave) {
    case 0: switch (note) {
      case 'A': if(flat){OCR1A=Ab0;}
     54c:	66 23       	and	r22, r22
     54e:	09 f4       	brne	.+2      	; 0x552 <__LOCK_REGION_LENGTH__+0x152>
     550:	0f c1       	rjmp	.+542    	; 0x770 <__LOCK_REGION_LENGTH__+0x370>
     552:	8e ec       	ldi	r24, 0xCE	; 206
     554:	92 e1       	ldi	r25, 0x12	; 18
     556:	9b bd       	out	0x2b, r25	; 43
     558:	8a bd       	out	0x2a, r24	; 42
     55a:	ab ce       	rjmp	.-682    	; 0x2b2 <play_note+0x26>
      case 'E': if(flat){OCR1A=Eb0;}
        else {OCR1A=E0;}
	break;
      case 'F': OCR1A=F0;
	break;
      case 'G': if(flat){OCR1A=Gb0;}
     55c:	66 23       	and	r22, r22
     55e:	09 f4       	brne	.+2      	; 0x562 <__LOCK_REGION_LENGTH__+0x162>
     560:	7a c1       	rjmp	.+756    	; 0x856 <__LOCK_REGION_LENGTH__+0x456>
     562:	8d e1       	ldi	r24, 0x1D	; 29
     564:	95 e1       	ldi	r25, 0x15	; 21
     566:	9b bd       	out	0x2b, r25	; 43
     568:	8a bd       	out	0x2a, r24	; 42
     56a:	a3 ce       	rjmp	.-698    	; 0x2b2 <play_note+0x26>
      break;
    case 1: switch (note) {
      case 'A': if(flat){OCR1A=Ab1;}
        else {OCR1A=A1;}
	break;
      case 'B': if(flat){OCR1A=Bb1;}
     56c:	66 23       	and	r22, r22
     56e:	09 f4       	brne	.+2      	; 0x572 <__LOCK_REGION_LENGTH__+0x172>
     570:	dc c0       	rjmp	.+440    	; 0x72a <__LOCK_REGION_LENGTH__+0x32a>
     572:	80 e6       	ldi	r24, 0x60	; 96
     574:	98 e0       	ldi	r25, 0x08	; 8
     576:	9b bd       	out	0x2b, r25	; 43
     578:	8a bd       	out	0x2a, r24	; 42
     57a:	9b ce       	rjmp	.-714    	; 0x2b2 <play_note+0x26>
      case 'E': if(flat){OCR1A=Eb8;}
        else {OCR1A=E8;}
	break;
      case 'F': OCR1A=F8;
	break;
      case 'G': if(flat){OCR1A=Gb8;}
     57c:	66 23       	and	r22, r22
     57e:	09 f4       	brne	.+2      	; 0x582 <__LOCK_REGION_LENGTH__+0x182>
     580:	92 c1       	rjmp	.+804    	; 0x8a6 <__LOCK_REGION_LENGTH__+0x4a6>
     582:	80 e1       	ldi	r24, 0x10	; 16
     584:	90 e0       	ldi	r25, 0x00	; 0
     586:	9b bd       	out	0x2b, r25	; 43
     588:	8a bd       	out	0x2a, r24	; 42
     58a:	93 ce       	rjmp	.-730    	; 0x2b2 <play_note+0x26>
        else {OCR1A=D1;}
	break;
      case 'E': if(flat){OCR1A=Eb1;}
        else {OCR1A=E1;}
	break;
      case 'F': OCR1A=F1;
     58c:	8e e2       	ldi	r24, 0x2E	; 46
     58e:	9b e0       	ldi	r25, 0x0B	; 11
     590:	9b bd       	out	0x2b, r25	; 43
     592:	8a bd       	out	0x2a, r24	; 42
	break;
     594:	8e ce       	rjmp	.-740    	; 0x2b2 <play_note+0x26>
      case 'B': if(flat){OCR1A=Bb8;}
        else {OCR1A=B8;}
	break;
      case 'C': OCR1A=C8;
	break;
      case 'D': if(flat){OCR1A=Db8;}
     596:	66 23       	and	r22, r22
     598:	09 f4       	brne	.+2      	; 0x59c <__LOCK_REGION_LENGTH__+0x19c>
     59a:	49 c1       	rjmp	.+658    	; 0x82e <__LOCK_REGION_LENGTH__+0x42e>
     59c:	8b e1       	ldi	r24, 0x1B	; 27
     59e:	90 e0       	ldi	r25, 0x00	; 0
     5a0:	9b bd       	out	0x2b, r25	; 43
     5a2:	8a bd       	out	0x2a, r24	; 42
     5a4:	86 ce       	rjmp	.-756    	; 0x2b2 <play_note+0x26>
        else {OCR1A=A8;}
	break;
      case 'B': if(flat){OCR1A=Bb8;}
        else {OCR1A=B8;}
	break;
      case 'C': OCR1A=C8;
     5a6:	8c e1       	ldi	r24, 0x1C	; 28
     5a8:	90 e0       	ldi	r25, 0x00	; 0
     5aa:	9b bd       	out	0x2b, r25	; 43
     5ac:	8a bd       	out	0x2a, r24	; 42
	break;
     5ae:	81 ce       	rjmp	.-766    	; 0x2b2 <play_note+0x26>
      break;
    case 8: switch (note) {
      case 'A': if(flat){OCR1A=Ab8;}
        else {OCR1A=A8;}
	break;
      case 'B': if(flat){OCR1A=Bb8;}
     5b0:	66 23       	and	r22, r22
     5b2:	09 f4       	brne	.+2      	; 0x5b6 <__LOCK_REGION_LENGTH__+0x1b6>
     5b4:	41 c1       	rjmp	.+642    	; 0x838 <__LOCK_REGION_LENGTH__+0x438>
     5b6:	87 e0       	ldi	r24, 0x07	; 7
     5b8:	90 e0       	ldi	r25, 0x00	; 0
     5ba:	9b bd       	out	0x2b, r25	; 43
     5bc:	8a bd       	out	0x2a, r24	; 42
     5be:	79 ce       	rjmp	.-782    	; 0x2b2 <play_note+0x26>
        else {OCR1A=G7;}
	break;
      } 
      break;
    case 8: switch (note) {
      case 'A': if(flat){OCR1A=Ab8;}
     5c0:	66 23       	and	r22, r22
     5c2:	09 f4       	brne	.+2      	; 0x5c6 <__LOCK_REGION_LENGTH__+0x1c6>
     5c4:	da c0       	rjmp	.+436    	; 0x77a <__LOCK_REGION_LENGTH__+0x37a>
     5c6:	8b e0       	ldi	r24, 0x0B	; 11
     5c8:	90 e0       	ldi	r25, 0x00	; 0
     5ca:	9b bd       	out	0x2b, r25	; 43
     5cc:	8a bd       	out	0x2a, r24	; 42
     5ce:	71 ce       	rjmp	.-798    	; 0x2b2 <play_note+0x26>
        else {OCR1A=D8;}
	break;
      case 'E': if(flat){OCR1A=Eb8;}
        else {OCR1A=E8;}
	break;
      case 'F': OCR1A=F8;
     5d0:	82 e1       	ldi	r24, 0x12	; 18
     5d2:	90 e0       	ldi	r25, 0x00	; 0
     5d4:	9b bd       	out	0x2b, r25	; 43
     5d6:	8a bd       	out	0x2a, r24	; 42
	break;
     5d8:	6c ce       	rjmp	.-808    	; 0x2b2 <play_note+0x26>
      case 'C': OCR1A=C0;
	break;
      case 'D': if(flat){OCR1A=Db0;}
        else {OCR1A=D0;}
	break;
      case 'E': if(flat){OCR1A=Eb0;}
     5da:	66 23       	and	r22, r22
     5dc:	09 f4       	brne	.+2      	; 0x5e0 <__LOCK_REGION_LENGTH__+0x1e0>
     5de:	9b c0       	rjmp	.+310    	; 0x716 <__LOCK_REGION_LENGTH__+0x316>
     5e0:	89 e1       	ldi	r24, 0x19	; 25
     5e2:	99 e1       	ldi	r25, 0x19	; 25
     5e4:	9b bd       	out	0x2b, r25	; 43
     5e6:	8a bd       	out	0x2a, r24	; 42
     5e8:	64 ce       	rjmp	.-824    	; 0x2b2 <play_note+0x26>
      case 'B': if(flat){OCR1A=Bb0;}
        else {OCR1A=B0;}
	break;
      case 'C': OCR1A=C0;
	break;
      case 'D': if(flat){OCR1A=Db0;}
     5ea:	66 23       	and	r22, r22
     5ec:	09 f4       	brne	.+2      	; 0x5f0 <__LOCK_REGION_LENGTH__+0x1f0>
     5ee:	29 c1       	rjmp	.+594    	; 0x842 <__LOCK_REGION_LENGTH__+0x442>
     5f0:	80 e3       	ldi	r24, 0x30	; 48
     5f2:	9c e1       	ldi	r25, 0x1C	; 28
     5f4:	9b bd       	out	0x2b, r25	; 43
     5f6:	8a bd       	out	0x2a, r24	; 42
     5f8:	5c ce       	rjmp	.-840    	; 0x2b2 <play_note+0x26>
        else {OCR1A=A0;}
	break;
      case 'B': if(flat){OCR1A=Bb0;}
        else {OCR1A=B0;}
	break;
      case 'C': OCR1A=C0;
     5fa:	8c ed       	ldi	r24, 0xDC	; 220
     5fc:	9d e1       	ldi	r25, 0x1D	; 29
     5fe:	9b bd       	out	0x2b, r25	; 43
     600:	8a bd       	out	0x2a, r24	; 42
	break;
     602:	57 ce       	rjmp	.-850    	; 0x2b2 <play_note+0x26>
        else {OCR1A=A7;}
	break;
      case 'B': if(flat){OCR1A=Bb7;}
        else {OCR1A=B7;}
	break;
      case 'C': OCR1A=C7;
     604:	8a e3       	ldi	r24, 0x3A	; 58
     606:	90 e0       	ldi	r25, 0x00	; 0
     608:	9b bd       	out	0x2b, r25	; 43
     60a:	8a bd       	out	0x2a, r24	; 42
	break;
     60c:	52 ce       	rjmp	.-860    	; 0x2b2 <play_note+0x26>
      break;
    case 7: switch (note) {
      case 'A': if(flat){OCR1A=Ab7;}
        else {OCR1A=A7;}
	break;
      case 'B': if(flat){OCR1A=Bb7;}
     60e:	66 23       	and	r22, r22
     610:	09 f4       	brne	.+2      	; 0x614 <__LOCK_REGION_LENGTH__+0x214>
     612:	35 c1       	rjmp	.+618    	; 0x87e <__LOCK_REGION_LENGTH__+0x47e>
     614:	80 e2       	ldi	r24, 0x20	; 32
     616:	90 e0       	ldi	r25, 0x00	; 0
     618:	9b bd       	out	0x2b, r25	; 43
     61a:	8a bd       	out	0x2a, r24	; 42
     61c:	4a ce       	rjmp	.-876    	; 0x2b2 <play_note+0x26>
        else {OCR1A=G6;}
	break;
      } 
      break;
    case 7: switch (note) {
      case 'A': if(flat){OCR1A=Ab7;}
     61e:	66 23       	and	r22, r22
     620:	09 f4       	brne	.+2      	; 0x624 <__LOCK_REGION_LENGTH__+0x224>
     622:	32 c1       	rjmp	.+612    	; 0x888 <__LOCK_REGION_LENGTH__+0x488>
     624:	84 e2       	ldi	r24, 0x24	; 36
     626:	90 e0       	ldi	r25, 0x00	; 0
     628:	9b bd       	out	0x2b, r25	; 43
     62a:	8a bd       	out	0x2a, r24	; 42
     62c:	42 ce       	rjmp	.-892    	; 0x2b2 <play_note+0x26>
      case 'E': if(flat){OCR1A=Eb7;}
        else {OCR1A=E7;}
	break;
      case 'F': OCR1A=F7;
	break;
      case 'G': if(flat){OCR1A=Gb7;}
     62e:	66 23       	and	r22, r22
     630:	09 f4       	brne	.+2      	; 0x634 <__LOCK_REGION_LENGTH__+0x234>
     632:	76 c0       	rjmp	.+236    	; 0x720 <__LOCK_REGION_LENGTH__+0x320>
     634:	89 e2       	ldi	r24, 0x29	; 41
     636:	90 e0       	ldi	r25, 0x00	; 0
     638:	9b bd       	out	0x2b, r25	; 43
     63a:	8a bd       	out	0x2a, r24	; 42
     63c:	3a ce       	rjmp	.-908    	; 0x2b2 <play_note+0x26>
      case 'C': OCR1A=C7;
	break;
      case 'D': if(flat){OCR1A=Db7;}
        else {OCR1A=D7;}
	break;
      case 'E': if(flat){OCR1A=Eb7;}
     63e:	66 23       	and	r22, r22
     640:	09 f4       	brne	.+2      	; 0x644 <__LOCK_REGION_LENGTH__+0x244>
     642:	78 c0       	rjmp	.+240    	; 0x734 <__LOCK_REGION_LENGTH__+0x334>
     644:	81 e3       	ldi	r24, 0x31	; 49
     646:	90 e0       	ldi	r25, 0x00	; 0
     648:	9b bd       	out	0x2b, r25	; 43
     64a:	8a bd       	out	0x2a, r24	; 42
     64c:	32 ce       	rjmp	.-924    	; 0x2b2 <play_note+0x26>
        else {OCR1A=E7;}
	break;
      case 'F': OCR1A=F7;
     64e:	8b e2       	ldi	r24, 0x2B	; 43
     650:	90 e0       	ldi	r25, 0x00	; 0
     652:	9b bd       	out	0x2b, r25	; 43
     654:	8a bd       	out	0x2a, r24	; 42
	break;
     656:	2d ce       	rjmp	.-934    	; 0x2b2 <play_note+0x26>
      case 'B': if(flat){OCR1A=Bb7;}
        else {OCR1A=B7;}
	break;
      case 'C': OCR1A=C7;
	break;
      case 'D': if(flat){OCR1A=Db7;}
     658:	66 23       	and	r22, r22
     65a:	09 f4       	brne	.+2      	; 0x65e <__LOCK_REGION_LENGTH__+0x25e>
     65c:	93 c0       	rjmp	.+294    	; 0x784 <__LOCK_REGION_LENGTH__+0x384>
     65e:	87 e3       	ldi	r24, 0x37	; 55
     660:	90 e0       	ldi	r25, 0x00	; 0
     662:	9b bd       	out	0x2b, r25	; 43
     664:	8a bd       	out	0x2a, r24	; 42
     666:	25 ce       	rjmp	.-950    	; 0x2b2 <play_note+0x26>
      case 'C': OCR1A=C8;
	break;
      case 'D': if(flat){OCR1A=Db8;}
        else {OCR1A=D8;}
	break;
      case 'E': if(flat){OCR1A=Eb8;}
     668:	66 23       	and	r22, r22
     66a:	09 f4       	brne	.+2      	; 0x66e <__LOCK_REGION_LENGTH__+0x26e>
     66c:	4f c0       	rjmp	.+158    	; 0x70c <__LOCK_REGION_LENGTH__+0x30c>
     66e:	88 e1       	ldi	r24, 0x18	; 24
     670:	90 e0       	ldi	r25, 0x00	; 0
     672:	9b bd       	out	0x2b, r25	; 43
     674:	8a bd       	out	0x2a, r24	; 42
     676:	1d ce       	rjmp	.-966    	; 0x2b2 <play_note+0x26>
        else {OCR1A=G1;}
	break;
      } 
      break;
    case 2: switch (note) {
      case 'A': if(flat){OCR1A=Ab2;}
     678:	66 23       	and	r22, r22
     67a:	09 f4       	brne	.+2      	; 0x67e <__LOCK_REGION_LENGTH__+0x27e>
     67c:	f6 c0       	rjmp	.+492    	; 0x86a <__LOCK_REGION_LENGTH__+0x46a>
     67e:	82 eb       	ldi	r24, 0xB2	; 178
     680:	94 e0       	ldi	r25, 0x04	; 4
     682:	9b bd       	out	0x2b, r25	; 43
     684:	8a bd       	out	0x2a, r24	; 42
     686:	15 ce       	rjmp	.-982    	; 0x2b2 <play_note+0x26>
      case 'E': if(flat){OCR1A=Eb1;}
        else {OCR1A=E1;}
	break;
      case 'F': OCR1A=F1;
	break;
      case 'G': if(flat){OCR1A=Gb1;}
     688:	66 23       	and	r22, r22
     68a:	09 f4       	brne	.+2      	; 0x68e <__LOCK_REGION_LENGTH__+0x28e>
     68c:	16 c1       	rjmp	.+556    	; 0x8ba <__LOCK_REGION_LENGTH__+0x4ba>
     68e:	8d e8       	ldi	r24, 0x8D	; 141
     690:	9a e0       	ldi	r25, 0x0A	; 10
     692:	9b bd       	out	0x2b, r25	; 43
     694:	8a bd       	out	0x2a, r24	; 42
     696:	0d ce       	rjmp	.-998    	; 0x2b2 <play_note+0x26>
      case 'B': if(flat){OCR1A=Bb1;}
        else {OCR1A=B1;}
	break;
      case 'C': OCR1A=C1;
	break;
      case 'D': if(flat){OCR1A=Db1;}
     698:	66 23       	and	r22, r22
     69a:	09 f4       	brne	.+2      	; 0x69e <__LOCK_REGION_LENGTH__+0x29e>
     69c:	d7 c0       	rjmp	.+430    	; 0x84c <__LOCK_REGION_LENGTH__+0x44c>
     69e:	86 e1       	ldi	r24, 0x16	; 22
     6a0:	9e e0       	ldi	r25, 0x0E	; 14
     6a2:	9b bd       	out	0x2b, r25	; 43
     6a4:	8a bd       	out	0x2a, r24	; 42
     6a6:	05 ce       	rjmp	.-1014   	; 0x2b2 <play_note+0x26>
  switch (octave) {
    case 0: switch (note) {
      case 'A': if(flat){OCR1A=Ab0;}
        else {OCR1A=A0;}
	break;
      case 'B': if(flat){OCR1A=Bb0;}
     6a8:	66 23       	and	r22, r22
     6aa:	09 f4       	brne	.+2      	; 0x6ae <__LOCK_REGION_LENGTH__+0x2ae>
     6ac:	f7 c0       	rjmp	.+494    	; 0x89c <__LOCK_REGION_LENGTH__+0x49c>
     6ae:	80 ec       	ldi	r24, 0xC0	; 192
     6b0:	90 e1       	ldi	r25, 0x10	; 16
     6b2:	9b bd       	out	0x2b, r25	; 43
     6b4:	8a bd       	out	0x2a, r24	; 42
     6b6:	fd cd       	rjmp	.-1030   	; 0x2b2 <play_note+0x26>
      break;
    case 2: switch (note) {
      case 'A': if(flat){OCR1A=Ab2;}
        else {OCR1A=A2;}
	break;
      case 'B': if(flat){OCR1A=Bb2;}
     6b8:	66 23       	and	r22, r22
     6ba:	09 f4       	brne	.+2      	; 0x6be <__LOCK_REGION_LENGTH__+0x2be>
     6bc:	d1 c0       	rjmp	.+418    	; 0x860 <__LOCK_REGION_LENGTH__+0x460>
     6be:	8f e2       	ldi	r24, 0x2F	; 47
     6c0:	94 e0       	ldi	r25, 0x04	; 4
     6c2:	9b bd       	out	0x2b, r25	; 43
     6c4:	8a bd       	out	0x2a, r24	; 42
     6c6:	f5 cd       	rjmp	.-1046   	; 0x2b2 <play_note+0x26>
        else {OCR1A=G0;}
	break;
      } 
      break;
    case 1: switch (note) {
      case 'A': if(flat){OCR1A=Ab1;}
     6c8:	66 23       	and	r22, r22
     6ca:	09 f4       	brne	.+2      	; 0x6ce <__LOCK_REGION_LENGTH__+0x2ce>
     6cc:	f1 c0       	rjmp	.+482    	; 0x8b0 <__LOCK_REGION_LENGTH__+0x4b0>
     6ce:	87 e6       	ldi	r24, 0x67	; 103
     6d0:	99 e0       	ldi	r25, 0x09	; 9
     6d2:	9b bd       	out	0x2b, r25	; 43
     6d4:	8a bd       	out	0x2a, r24	; 42
     6d6:	ed cd       	rjmp	.-1062   	; 0x2b2 <play_note+0x26>
      case 'C': OCR1A=C1;
	break;
      case 'D': if(flat){OCR1A=Db1;}
        else {OCR1A=D1;}
	break;
      case 'E': if(flat){OCR1A=Eb1;}
     6d8:	66 23       	and	r22, r22
     6da:	09 f4       	brne	.+2      	; 0x6de <__LOCK_REGION_LENGTH__+0x2de>
     6dc:	cb c0       	rjmp	.+406    	; 0x874 <__LOCK_REGION_LENGTH__+0x474>
     6de:	8d e8       	ldi	r24, 0x8D	; 141
     6e0:	9c e0       	ldi	r25, 0x0C	; 12
     6e2:	9b bd       	out	0x2b, r25	; 43
     6e4:	8a bd       	out	0x2a, r24	; 42
     6e6:	e5 cd       	rjmp	.-1078   	; 0x2b2 <play_note+0x26>
        else {OCR1A=D0;}
	break;
      case 'E': if(flat){OCR1A=Eb0;}
        else {OCR1A=E0;}
	break;
      case 'F': OCR1A=F0;
     6e8:	8d e5       	ldi	r24, 0x5D	; 93
     6ea:	96 e1       	ldi	r25, 0x16	; 22
     6ec:	9b bd       	out	0x2b, r25	; 43
     6ee:	8a bd       	out	0x2a, r24	; 42
	break;
     6f0:	e0 cd       	rjmp	.-1088   	; 0x2b2 <play_note+0x26>
      case 'E': if(flat){OCR1A=Eb2;}
        else {OCR1A=E2;}
	break;
      case 'F': OCR1A=F2;
	break;
      case 'G': if(flat){OCR1A=Gb2;}
     6f2:	66 23       	and	r22, r22
     6f4:	09 f4       	brne	.+2      	; 0x6f8 <__LOCK_REGION_LENGTH__+0x2f8>
     6f6:	e6 c0       	rjmp	.+460    	; 0x8c4 <__LOCK_REGION_LENGTH__+0x4c4>
     6f8:	86 e4       	ldi	r24, 0x46	; 70
     6fa:	95 e0       	ldi	r25, 0x05	; 5
     6fc:	9b bd       	out	0x2b, r25	; 43
     6fe:	8a bd       	out	0x2a, r24	; 42
     700:	d8 cd       	rjmp	.-1104   	; 0x2b2 <play_note+0x26>
        else {OCR1A=A1;}
	break;
      case 'B': if(flat){OCR1A=Bb1;}
        else {OCR1A=B1;}
	break;
      case 'C': OCR1A=C1;
     702:	8d ee       	ldi	r24, 0xED	; 237
     704:	9e e0       	ldi	r25, 0x0E	; 14
     706:	9b bd       	out	0x2b, r25	; 43
     708:	8a bd       	out	0x2a, r24	; 42
	break;
     70a:	d3 cd       	rjmp	.-1114   	; 0x2b2 <play_note+0x26>
	break;
      case 'D': if(flat){OCR1A=Db8;}
        else {OCR1A=D8;}
	break;
      case 'E': if(flat){OCR1A=Eb8;}
        else {OCR1A=E8;}
     70c:	85 e1       	ldi	r24, 0x15	; 21
     70e:	90 e0       	ldi	r25, 0x00	; 0
     710:	9b bd       	out	0x2b, r25	; 43
     712:	8a bd       	out	0x2a, r24	; 42
     714:	ce cd       	rjmp	.-1124   	; 0x2b2 <play_note+0x26>
	break;
      case 'D': if(flat){OCR1A=Db0;}
        else {OCR1A=D0;}
	break;
      case 'E': if(flat){OCR1A=Eb0;}
        else {OCR1A=E0;}
     716:	82 eb       	ldi	r24, 0xB2	; 178
     718:	97 e1       	ldi	r25, 0x17	; 23
     71a:	9b bd       	out	0x2b, r25	; 43
     71c:	8a bd       	out	0x2a, r24	; 42
     71e:	c9 cd       	rjmp	.-1134   	; 0x2b2 <play_note+0x26>
        else {OCR1A=E7;}
	break;
      case 'F': OCR1A=F7;
	break;
      case 'G': if(flat){OCR1A=Gb7;}
        else {OCR1A=G7;}
     720:	86 e2       	ldi	r24, 0x26	; 38
     722:	90 e0       	ldi	r25, 0x00	; 0
     724:	9b bd       	out	0x2b, r25	; 43
     726:	8a bd       	out	0x2a, r24	; 42
     728:	c4 cd       	rjmp	.-1144   	; 0x2b2 <play_note+0x26>
    case 1: switch (note) {
      case 'A': if(flat){OCR1A=Ab1;}
        else {OCR1A=A1;}
	break;
      case 'B': if(flat){OCR1A=Bb1;}
        else {OCR1A=B1;}
     72a:	87 ee       	ldi	r24, 0xE7	; 231
     72c:	97 e0       	ldi	r25, 0x07	; 7
     72e:	9b bd       	out	0x2b, r25	; 43
     730:	8a bd       	out	0x2a, r24	; 42
     732:	bf cd       	rjmp	.-1154   	; 0x2b2 <play_note+0x26>
	break;
      case 'D': if(flat){OCR1A=Db7;}
        else {OCR1A=D7;}
	break;
      case 'E': if(flat){OCR1A=Eb7;}
        else {OCR1A=E7;}
     734:	8e e2       	ldi	r24, 0x2E	; 46
     736:	90 e0       	ldi	r25, 0x00	; 0
     738:	9b bd       	out	0x2b, r25	; 43
     73a:	8a bd       	out	0x2a, r24	; 42
     73c:	ba cd       	rjmp	.-1164   	; 0x2b2 <play_note+0x26>
	break;
      case 'D': if(flat){OCR1A=Db2;}
        else {OCR1A=D2;}
	break;
      case 'E': if(flat){OCR1A=Eb2;}
        else {OCR1A=E2;}
     73e:	8b ee       	ldi	r24, 0xEB	; 235
     740:	95 e0       	ldi	r25, 0x05	; 5
     742:	9b bd       	out	0x2b, r25	; 43
     744:	8a bd       	out	0x2a, r24	; 42
     746:	b5 cd       	rjmp	.-1174   	; 0x2b2 <play_note+0x26>
	break;
      case 'D': if(flat){OCR1A=Db4;}
        else {OCR1A=D4;}
	break;
      case 'E': if(flat){OCR1A=Eb4;}
        else {OCR1A=E4;}
     748:	8a e7       	ldi	r24, 0x7A	; 122
     74a:	91 e0       	ldi	r25, 0x01	; 1
     74c:	9b bd       	out	0x2b, r25	; 43
     74e:	8a bd       	out	0x2a, r24	; 42
     750:	b0 cd       	rjmp	.-1184   	; 0x2b2 <play_note+0x26>
    case 6: switch (note) {
      case 'A': if(flat){OCR1A=Ab6;}
        else {OCR1A=A6;}
	break;
      case 'B': if(flat){OCR1A=Bb6;}
        else {OCR1A=B6;}
     752:	8e e3       	ldi	r24, 0x3E	; 62
     754:	90 e0       	ldi	r25, 0x00	; 0
     756:	9b bd       	out	0x2b, r25	; 43
     758:	8a bd       	out	0x2a, r24	; 42
     75a:	ab cd       	rjmp	.-1194   	; 0x2b2 <play_note+0x26>
    case 3: switch (note) {
      case 'A': if(flat){OCR1A=Ab3;}
        else {OCR1A=A3;}
	break;
      case 'B': if(flat){OCR1A=Bb3;}
        else {OCR1A=B3;}
     75c:	89 ef       	ldi	r24, 0xF9	; 249
     75e:	91 e0       	ldi	r25, 0x01	; 1
     760:	9b bd       	out	0x2b, r25	; 43
     762:	8a bd       	out	0x2a, r24	; 42
     764:	a6 cd       	rjmp	.-1204   	; 0x2b2 <play_note+0x26>
	break;
      case 'D': if(flat){OCR1A=Db5;}
        else {OCR1A=D5;}
	break;
      case 'E': if(flat){OCR1A=Eb5;}
        else {OCR1A=E5;}
     766:	8c eb       	ldi	r24, 0xBC	; 188
     768:	90 e0       	ldi	r25, 0x00	; 0
     76a:	9b bd       	out	0x2b, r25	; 43
     76c:	8a bd       	out	0x2a, r24	; 42
     76e:	a1 cd       	rjmp	.-1214   	; 0x2b2 <play_note+0x26>
  beat = 0;             //reset the beat counter
  max_beat = duration;  //set the max beat
  switch (octave) {
    case 0: switch (note) {
      case 'A': if(flat){OCR1A=Ab0;}
        else {OCR1A=A0;}
     770:	80 ec       	ldi	r24, 0xC0	; 192
     772:	91 e1       	ldi	r25, 0x11	; 17
     774:	9b bd       	out	0x2b, r25	; 43
     776:	8a bd       	out	0x2a, r24	; 42
     778:	9c cd       	rjmp	.-1224   	; 0x2b2 <play_note+0x26>
	break;
      } 
      break;
    case 8: switch (note) {
      case 'A': if(flat){OCR1A=Ab8;}
        else {OCR1A=A8;}
     77a:	89 e0       	ldi	r24, 0x09	; 9
     77c:	90 e0       	ldi	r25, 0x00	; 0
     77e:	9b bd       	out	0x2b, r25	; 43
     780:	8a bd       	out	0x2a, r24	; 42
     782:	97 cd       	rjmp	.-1234   	; 0x2b2 <play_note+0x26>
        else {OCR1A=B7;}
	break;
      case 'C': OCR1A=C7;
	break;
      case 'D': if(flat){OCR1A=Db7;}
        else {OCR1A=D7;}
     784:	84 e3       	ldi	r24, 0x34	; 52
     786:	90 e0       	ldi	r25, 0x00	; 0
     788:	9b bd       	out	0x2b, r25	; 43
     78a:	8a bd       	out	0x2a, r24	; 42
     78c:	92 cd       	rjmp	.-1244   	; 0x2b2 <play_note+0x26>
	break;
      } 
      break;
    case 5: switch (note) {
      case 'A': if(flat){OCR1A=Ab5;}
        else {OCR1A=A5;}
     78e:	8d e8       	ldi	r24, 0x8D	; 141
     790:	90 e0       	ldi	r25, 0x00	; 0
     792:	9b bd       	out	0x2b, r25	; 43
     794:	8a bd       	out	0x2a, r24	; 42
     796:	8d cd       	rjmp	.-1254   	; 0x2b2 <play_note+0x26>
        else {OCR1A=E5;}
	break;
      case 'F': OCR1A=F5;
	break;
      case 'G': if(flat){OCR1A=Gb5;}
        else {OCR1A=G5;}
     798:	8e e9       	ldi	r24, 0x9E	; 158
     79a:	90 e0       	ldi	r25, 0x00	; 0
     79c:	9b bd       	out	0x2b, r25	; 43
     79e:	8a bd       	out	0x2a, r24	; 42
     7a0:	88 cd       	rjmp	.-1264   	; 0x2b2 <play_note+0x26>
    case 5: switch (note) {
      case 'A': if(flat){OCR1A=Ab5;}
        else {OCR1A=A5;}
	break;
      case 'B': if(flat){OCR1A=Bb5;}
        else {OCR1A=B5;}
     7a2:	8d e7       	ldi	r24, 0x7D	; 125
     7a4:	90 e0       	ldi	r25, 0x00	; 0
     7a6:	9b bd       	out	0x2b, r25	; 43
     7a8:	8a bd       	out	0x2a, r24	; 42
     7aa:	83 cd       	rjmp	.-1274   	; 0x2b2 <play_note+0x26>
	break;
      case 'C': OCR1A=C5;
	break;
      case 'D': if(flat){OCR1A=Db5;}
        else {OCR1A=D5;}
     7ac:	83 ed       	ldi	r24, 0xD3	; 211
     7ae:	90 e0       	ldi	r25, 0x00	; 0
     7b0:	9b bd       	out	0x2b, r25	; 43
     7b2:	8a bd       	out	0x2a, r24	; 42
     7b4:	7e cd       	rjmp	.-1284   	; 0x2b2 <play_note+0x26>
	break;
      case 'D': if(flat){OCR1A=Db6;}
        else {OCR1A=D6;}
	break;
      case 'E': if(flat){OCR1A=Eb6;}
        else {OCR1A=E6;}
     7b6:	8d e5       	ldi	r24, 0x5D	; 93
     7b8:	90 e0       	ldi	r25, 0x00	; 0
     7ba:	9b bd       	out	0x2b, r25	; 43
     7bc:	8a bd       	out	0x2a, r24	; 42
     7be:	79 cd       	rjmp	.-1294   	; 0x2b2 <play_note+0x26>
	break;
      } 
      break;
    case 6: switch (note) {
      case 'A': if(flat){OCR1A=Ab6;}
        else {OCR1A=A6;}
     7c0:	86 e4       	ldi	r24, 0x46	; 70
     7c2:	90 e0       	ldi	r25, 0x00	; 0
     7c4:	9b bd       	out	0x2b, r25	; 43
     7c6:	8a bd       	out	0x2a, r24	; 42
     7c8:	74 cd       	rjmp	.-1304   	; 0x2b2 <play_note+0x26>
        else {OCR1A=B6;}
	break;
      case 'C': OCR1A=C6;
	break;
      case 'D': if(flat){OCR1A=Db6;}
        else {OCR1A=D6;}
     7ca:	89 e6       	ldi	r24, 0x69	; 105
     7cc:	90 e0       	ldi	r25, 0x00	; 0
     7ce:	9b bd       	out	0x2b, r25	; 43
     7d0:	8a bd       	out	0x2a, r24	; 42
     7d2:	6f cd       	rjmp	.-1314   	; 0x2b2 <play_note+0x26>
        else {OCR1A=E6;}
	break;
      case 'F': OCR1A=F6;
	break;
      case 'G': if(flat){OCR1A=Gb6;}
        else {OCR1A=G6;}
     7d4:	8e e4       	ldi	r24, 0x4E	; 78
     7d6:	90 e0       	ldi	r25, 0x00	; 0
     7d8:	9b bd       	out	0x2b, r25	; 43
     7da:	8a bd       	out	0x2a, r24	; 42
     7dc:	6a cd       	rjmp	.-1324   	; 0x2b2 <play_note+0x26>
	break;
      } 
      break;
    case 4: switch (note) {
      case 'A': if(flat){OCR1A=Ab4;}
        else {OCR1A=A4;}
     7de:	8b e1       	ldi	r24, 0x1B	; 27
     7e0:	91 e0       	ldi	r25, 0x01	; 1
     7e2:	9b bd       	out	0x2b, r25	; 43
     7e4:	8a bd       	out	0x2a, r24	; 42
     7e6:	65 cd       	rjmp	.-1334   	; 0x2b2 <play_note+0x26>
        else {OCR1A=B2;}
	break;
      case 'C': OCR1A=C2;
	break;
      case 'D': if(flat){OCR1A=Db2;}
        else {OCR1A=D2;}
     7e8:	85 ea       	ldi	r24, 0xA5	; 165
     7ea:	96 e0       	ldi	r25, 0x06	; 6
     7ec:	9b bd       	out	0x2b, r25	; 43
     7ee:	8a bd       	out	0x2a, r24	; 42
     7f0:	60 cd       	rjmp	.-1344   	; 0x2b2 <play_note+0x26>
        else {OCR1A=E3;}
	break;
      case 'F': OCR1A=F3;
	break;
      case 'G': if(flat){OCR1A=Gb3;}
        else {OCR1A=G3;}
     7f2:	8c e7       	ldi	r24, 0x7C	; 124
     7f4:	92 e0       	ldi	r25, 0x02	; 2
     7f6:	9b bd       	out	0x2b, r25	; 43
     7f8:	8a bd       	out	0x2a, r24	; 42
     7fa:	5b cd       	rjmp	.-1354   	; 0x2b2 <play_note+0x26>
        else {OCR1A=B4;}
	break;
      case 'C': OCR1A=C4;
	break;
      case 'D': if(flat){OCR1A=Db4;}
        else {OCR1A=D4;}
     7fc:	88 ea       	ldi	r24, 0xA8	; 168
     7fe:	91 e0       	ldi	r25, 0x01	; 1
     800:	9b bd       	out	0x2b, r25	; 43
     802:	8a bd       	out	0x2a, r24	; 42
     804:	56 cd       	rjmp	.-1364   	; 0x2b2 <play_note+0x26>
        else {OCR1A=B3;}
	break;
      case 'C': OCR1A=C3;
	break;
      case 'D': if(flat){OCR1A=Db3;}
        else {OCR1A=D3;}
     806:	82 e5       	ldi	r24, 0x52	; 82
     808:	93 e0       	ldi	r25, 0x03	; 3
     80a:	9b bd       	out	0x2b, r25	; 43
     80c:	8a bd       	out	0x2a, r24	; 42
     80e:	51 cd       	rjmp	.-1374   	; 0x2b2 <play_note+0x26>
    case 4: switch (note) {
      case 'A': if(flat){OCR1A=Ab4;}
        else {OCR1A=A4;}
	break;
      case 'B': if(flat){OCR1A=Bb4;}
        else {OCR1A=B4;}
     810:	8c ef       	ldi	r24, 0xFC	; 252
     812:	90 e0       	ldi	r25, 0x00	; 0
     814:	9b bd       	out	0x2b, r25	; 43
     816:	8a bd       	out	0x2a, r24	; 42
     818:	4c cd       	rjmp	.-1384   	; 0x2b2 <play_note+0x26>
	break;
      } 
      break;
    case 3: switch (note) {
      case 'A': if(flat){OCR1A=Ab3;}
        else {OCR1A=A3;}
     81a:	87 e3       	ldi	r24, 0x37	; 55
     81c:	92 e0       	ldi	r25, 0x02	; 2
     81e:	9b bd       	out	0x2b, r25	; 43
     820:	8a bd       	out	0x2a, r24	; 42
     822:	47 cd       	rjmp	.-1394   	; 0x2b2 <play_note+0x26>
        else {OCR1A=E4;}
	break;
      case 'F': OCR1A=F4;
	break;
      case 'G': if(flat){OCR1A=Gb4;}
        else {OCR1A=G4;}
     824:	8d e3       	ldi	r24, 0x3D	; 61
     826:	91 e0       	ldi	r25, 0x01	; 1
     828:	9b bd       	out	0x2b, r25	; 43
     82a:	8a bd       	out	0x2a, r24	; 42
     82c:	42 cd       	rjmp	.-1404   	; 0x2b2 <play_note+0x26>
        else {OCR1A=B8;}
	break;
      case 'C': OCR1A=C8;
	break;
      case 'D': if(flat){OCR1A=Db8;}
        else {OCR1A=D8;}
     82e:	89 e1       	ldi	r24, 0x19	; 25
     830:	90 e0       	ldi	r25, 0x00	; 0
     832:	9b bd       	out	0x2b, r25	; 43
     834:	8a bd       	out	0x2a, r24	; 42
     836:	3d cd       	rjmp	.-1414   	; 0x2b2 <play_note+0x26>
    case 8: switch (note) {
      case 'A': if(flat){OCR1A=Ab8;}
        else {OCR1A=A8;}
	break;
      case 'B': if(flat){OCR1A=Bb8;}
        else {OCR1A=B8;}
     838:	85 e0       	ldi	r24, 0x05	; 5
     83a:	90 e0       	ldi	r25, 0x00	; 0
     83c:	9b bd       	out	0x2b, r25	; 43
     83e:	8a bd       	out	0x2a, r24	; 42
     840:	38 cd       	rjmp	.-1424   	; 0x2b2 <play_note+0x26>
        else {OCR1A=B0;}
	break;
      case 'C': OCR1A=C0;
	break;
      case 'D': if(flat){OCR1A=Db0;}
        else {OCR1A=D0;}
     842:	8a e9       	ldi	r24, 0x9A	; 154
     844:	9a e1       	ldi	r25, 0x1A	; 26
     846:	9b bd       	out	0x2b, r25	; 43
     848:	8a bd       	out	0x2a, r24	; 42
     84a:	33 cd       	rjmp	.-1434   	; 0x2b2 <play_note+0x26>
        else {OCR1A=B1;}
	break;
      case 'C': OCR1A=C1;
	break;
      case 'D': if(flat){OCR1A=Db1;}
        else {OCR1A=D1;}
     84c:	8c e4       	ldi	r24, 0x4C	; 76
     84e:	9d e0       	ldi	r25, 0x0D	; 13
     850:	9b bd       	out	0x2b, r25	; 43
     852:	8a bd       	out	0x2a, r24	; 42
     854:	2e cd       	rjmp	.-1444   	; 0x2b2 <play_note+0x26>
        else {OCR1A=E0;}
	break;
      case 'F': OCR1A=F0;
	break;
      case 'G': if(flat){OCR1A=Gb0;}
        else {OCR1A=G0;}
     856:	8d ee       	ldi	r24, 0xED	; 237
     858:	93 e1       	ldi	r25, 0x13	; 19
     85a:	9b bd       	out	0x2b, r25	; 43
     85c:	8a bd       	out	0x2a, r24	; 42
     85e:	29 cd       	rjmp	.-1454   	; 0x2b2 <play_note+0x26>
    case 2: switch (note) {
      case 'A': if(flat){OCR1A=Ab2;}
        else {OCR1A=A2;}
	break;
      case 'B': if(flat){OCR1A=Bb2;}
        else {OCR1A=B2;}
     860:	83 ef       	ldi	r24, 0xF3	; 243
     862:	93 e0       	ldi	r25, 0x03	; 3
     864:	9b bd       	out	0x2b, r25	; 43
     866:	8a bd       	out	0x2a, r24	; 42
     868:	24 cd       	rjmp	.-1464   	; 0x2b2 <play_note+0x26>
	break;
      } 
      break;
    case 2: switch (note) {
      case 'A': if(flat){OCR1A=Ab2;}
        else {OCR1A=A2;}
     86a:	8f e6       	ldi	r24, 0x6F	; 111
     86c:	94 e0       	ldi	r25, 0x04	; 4
     86e:	9b bd       	out	0x2b, r25	; 43
     870:	8a bd       	out	0x2a, r24	; 42
     872:	1f cd       	rjmp	.-1474   	; 0x2b2 <play_note+0x26>
	break;
      case 'D': if(flat){OCR1A=Db1;}
        else {OCR1A=D1;}
	break;
      case 'E': if(flat){OCR1A=Eb1;}
        else {OCR1A=E1;}
     874:	88 ed       	ldi	r24, 0xD8	; 216
     876:	9b e0       	ldi	r25, 0x0B	; 11
     878:	9b bd       	out	0x2b, r25	; 43
     87a:	8a bd       	out	0x2a, r24	; 42
     87c:	1a cd       	rjmp	.-1484   	; 0x2b2 <play_note+0x26>
    case 7: switch (note) {
      case 'A': if(flat){OCR1A=Ab7;}
        else {OCR1A=A7;}
	break;
      case 'B': if(flat){OCR1A=Bb7;}
        else {OCR1A=B7;}
     87e:	8e e1       	ldi	r24, 0x1E	; 30
     880:	90 e0       	ldi	r25, 0x00	; 0
     882:	9b bd       	out	0x2b, r25	; 43
     884:	8a bd       	out	0x2a, r24	; 42
     886:	15 cd       	rjmp	.-1494   	; 0x2b2 <play_note+0x26>
	break;
      } 
      break;
    case 7: switch (note) {
      case 'A': if(flat){OCR1A=Ab7;}
        else {OCR1A=A7;}
     888:	82 e2       	ldi	r24, 0x22	; 34
     88a:	90 e0       	ldi	r25, 0x00	; 0
     88c:	9b bd       	out	0x2b, r25	; 43
     88e:	8a bd       	out	0x2a, r24	; 42
     890:	10 cd       	rjmp	.-1504   	; 0x2b2 <play_note+0x26>
	break;
      case 'D': if(flat){OCR1A=Db3;}
        else {OCR1A=D3;}
	break;
      case 'E': if(flat){OCR1A=Eb3;}
        else {OCR1A=E3;}
     892:	85 ef       	ldi	r24, 0xF5	; 245
     894:	92 e0       	ldi	r25, 0x02	; 2
     896:	9b bd       	out	0x2b, r25	; 43
     898:	8a bd       	out	0x2a, r24	; 42
     89a:	0b cd       	rjmp	.-1514   	; 0x2b2 <play_note+0x26>
    case 0: switch (note) {
      case 'A': if(flat){OCR1A=Ab0;}
        else {OCR1A=A0;}
	break;
      case 'B': if(flat){OCR1A=Bb0;}
        else {OCR1A=B0;}
     89c:	80 ed       	ldi	r24, 0xD0	; 208
     89e:	9f e0       	ldi	r25, 0x0F	; 15
     8a0:	9b bd       	out	0x2b, r25	; 43
     8a2:	8a bd       	out	0x2a, r24	; 42
     8a4:	06 cd       	rjmp	.-1524   	; 0x2b2 <play_note+0x26>
        else {OCR1A=E8;}
	break;
      case 'F': OCR1A=F8;
	break;
      case 'G': if(flat){OCR1A=Gb8;}
        else {OCR1A=G8;}
     8a6:	8d e0       	ldi	r24, 0x0D	; 13
     8a8:	90 e0       	ldi	r25, 0x00	; 0
     8aa:	9b bd       	out	0x2b, r25	; 43
     8ac:	8a bd       	out	0x2a, r24	; 42
     8ae:	01 cd       	rjmp	.-1534   	; 0x2b2 <play_note+0x26>
	break;
      } 
      break;
    case 1: switch (note) {
      case 'A': if(flat){OCR1A=Ab1;}
        else {OCR1A=A1;}
     8b0:	8f ed       	ldi	r24, 0xDF	; 223
     8b2:	98 e0       	ldi	r25, 0x08	; 8
     8b4:	9b bd       	out	0x2b, r25	; 43
     8b6:	8a bd       	out	0x2a, r24	; 42
     8b8:	fc cc       	rjmp	.-1544   	; 0x2b2 <play_note+0x26>
        else {OCR1A=E1;}
	break;
      case 'F': OCR1A=F1;
	break;
      case 'G': if(flat){OCR1A=Gb1;}
        else {OCR1A=G1;}
     8ba:	86 ef       	ldi	r24, 0xF6	; 246
     8bc:	99 e0       	ldi	r25, 0x09	; 9
     8be:	9b bd       	out	0x2b, r25	; 43
     8c0:	8a bd       	out	0x2a, r24	; 42
     8c2:	f7 cc       	rjmp	.-1554   	; 0x2b2 <play_note+0x26>
        else {OCR1A=E2;}
	break;
      case 'F': OCR1A=F2;
	break;
      case 'G': if(flat){OCR1A=Gb2;}
        else {OCR1A=G2;}
     8c4:	8a ef       	ldi	r24, 0xFA	; 250
     8c6:	94 e0       	ldi	r25, 0x04	; 4
     8c8:	9b bd       	out	0x2b, r25	; 43
     8ca:	8a bd       	out	0x2a, r24	; 42
     8cc:	f2 cc       	rjmp	.-1564   	; 0x2b2 <play_note+0x26>

000008ce <play_rest>:
  }
}
void play_rest(uint8_t duration) {
  //mute for duration
  //duration is in 64th notes at 120bpm
  PORTD |= mute;
     8ce:	92 9a       	sbi	0x12, 2	; 18
  beat=0;
     8d0:	10 92 4c 01 	sts	0x014C, r1	; 0x80014c <beat+0x1>
     8d4:	10 92 4b 01 	sts	0x014B, r1	; 0x80014b <beat>
  max_beat = duration;
     8d8:	90 e0       	ldi	r25, 0x00	; 0
     8da:	90 93 4a 01 	sts	0x014A, r25	; 0x80014a <max_beat+0x1>
     8de:	80 93 49 01 	sts	0x0149, r24	; 0x800149 <max_beat>
     8e2:	08 95       	ret

000008e4 <music_off>:
}

void music_off(void) {
  //this turns the alarm timer off
  notes=0;
     8e4:	10 92 47 01 	sts	0x0147, r1	; 0x800147 <notes>
  TCCR1B &= ~((1<<CS11)|(1<<CS10));
     8e8:	8e b5       	in	r24, 0x2e	; 46
     8ea:	8c 7f       	andi	r24, 0xFC	; 252
     8ec:	8e bd       	out	0x2e, r24	; 46
  //and mutes the output
  PORTD |= mute;
     8ee:	92 9a       	sbi	0x12, 2	; 18
     8f0:	08 95       	ret

000008f2 <music_init>:
  play_song(song, notes);
}

void music_init(void) {
  //initially turned off (use music_on() to turn on)
  TIMSK |= (1<<OCIE1A);  //enable timer interrupt 1 on compare
     8f2:	87 b7       	in	r24, 0x37	; 55
     8f4:	80 61       	ori	r24, 0x10	; 16
     8f6:	87 bf       	out	0x37, r24	; 55
  TCCR1A = 0x00;         //TCNT1, normal port operation
     8f8:	1f bc       	out	0x2f, r1	; 47
  TCCR1B |= (1<<WGM12);  //CTC, OCR1A = top, clk/64 (250kHz)
     8fa:	8e b5       	in	r24, 0x2e	; 46
     8fc:	88 60       	ori	r24, 0x08	; 8
     8fe:	8e bd       	out	0x2e, r24	; 46
  TCCR1C = 0x00;         //no forced compare
     900:	10 92 7a 00 	sts	0x007A, r1	; 0x80007a <__TEXT_REGION_LENGTH__+0x7e007a>
  OCR1A = 0x0031;        //(use to vary alarm frequency)
     904:	81 e3       	ldi	r24, 0x31	; 49
     906:	90 e0       	ldi	r25, 0x00	; 0
     908:	9b bd       	out	0x2b, r25	; 43
     90a:	8a bd       	out	0x2a, r24	; 42
  max_beat = duration;
}

void music_off(void) {
  //this turns the alarm timer off
  notes=0;
     90c:	10 92 47 01 	sts	0x0147, r1	; 0x800147 <notes>
  TCCR1B &= ~((1<<CS11)|(1<<CS10));
     910:	8e b5       	in	r24, 0x2e	; 46
     912:	8c 7f       	andi	r24, 0xFC	; 252
     914:	8e bd       	out	0x2e, r24	; 46
  //and mutes the output
  PORTD |= mute;
     916:	92 9a       	sbi	0x12, 2	; 18
  TCCR1A = 0x00;         //TCNT1, normal port operation
  TCCR1B |= (1<<WGM12);  //CTC, OCR1A = top, clk/64 (250kHz)
  TCCR1C = 0x00;         //no forced compare
  OCR1A = 0x0031;        //(use to vary alarm frequency)
  music_off();
  beat = 0;
     918:	10 92 4c 01 	sts	0x014C, r1	; 0x80014c <beat+0x1>
     91c:	10 92 4b 01 	sts	0x014B, r1	; 0x80014b <beat>
  max_beat = 0;
     920:	10 92 4a 01 	sts	0x014A, r1	; 0x80014a <max_beat+0x1>
     924:	10 92 49 01 	sts	0x0149, r1	; 0x800149 <max_beat>
  notes = 0;
     928:	10 92 47 01 	sts	0x0147, r1	; 0x800147 <notes>
  song = 0;              //beaver fight song
     92c:	10 92 48 01 	sts	0x0148, r1	; 0x800148 <song>
     930:	08 95       	ret

00000932 <song0>:
} 
void song0(uint16_t note) { //beaver fight song (Max and Kellen)
  switch (note) {
     932:	86 34       	cpi	r24, 0x46	; 70
     934:	91 05       	cpc	r25, r1
     936:	20 f0       	brcs	.+8      	; 0x940 <song0+0xe>
       break;
    case 68: play_note('F', 0, 4, 24);
       break;
    case 69: play_rest(8);
       break;
    default: notes=-1;
     938:	8f ef       	ldi	r24, 0xFF	; 255
     93a:	80 93 47 01 	sts	0x0147, r24	; 0x800147 <notes>
     93e:	08 95       	ret
  max_beat = 0;
  notes = 0;
  song = 0;              //beaver fight song
} 
void song0(uint16_t note) { //beaver fight song (Max and Kellen)
  switch (note) {
     940:	fc 01       	movw	r30, r24
     942:	e2 57       	subi	r30, 0x72	; 114
     944:	ff 4f       	sbci	r31, 0xFF	; 255
     946:	0c 94 d5 10 	jmp	0x21aa	; 0x21aa <__tablejump2__>
  //octave must be 0-8 (0 is the lowest, 8 doesn't sound very good)
  //duration is in 64th notes at 120bpm
  //e.g. play_note('D', 1, 0, 16)
  //this would play a Db, octave 0 for 1 quarter note
  //120 bpm (every 32ms inc beat)
  PORTD &= unmute;      //unmute (just in case)
     94a:	92 98       	cbi	0x12, 2	; 18
  beat = 0;             //reset the beat counter
     94c:	10 92 4c 01 	sts	0x014C, r1	; 0x80014c <beat+0x1>
     950:	10 92 4b 01 	sts	0x014B, r1	; 0x80014b <beat>
  max_beat = duration;  //set the max beat
     954:	82 e0       	ldi	r24, 0x02	; 2
     956:	90 e0       	ldi	r25, 0x00	; 0
     958:	90 93 4a 01 	sts	0x014A, r25	; 0x80014a <max_beat+0x1>
     95c:	80 93 49 01 	sts	0x0149, r24	; 0x800149 <max_beat>
	break;
      } 
      break;
    case 4: switch (note) {
      case 'A': if(flat){OCR1A=Ab4;}
        else {OCR1A=A4;}
     960:	8b e1       	ldi	r24, 0x1B	; 27
     962:	91 e0       	ldi	r25, 0x01	; 1
     964:	9b bd       	out	0x2b, r25	; 43
     966:	8a bd       	out	0x2a, r24	; 42
     968:	08 95       	ret
  //octave must be 0-8 (0 is the lowest, 8 doesn't sound very good)
  //duration is in 64th notes at 120bpm
  //e.g. play_note('D', 1, 0, 16)
  //this would play a Db, octave 0 for 1 quarter note
  //120 bpm (every 32ms inc beat)
  PORTD &= unmute;      //unmute (just in case)
     96a:	92 98       	cbi	0x12, 2	; 18
  beat = 0;             //reset the beat counter
     96c:	10 92 4c 01 	sts	0x014C, r1	; 0x80014c <beat+0x1>
     970:	10 92 4b 01 	sts	0x014B, r1	; 0x80014b <beat>
  max_beat = duration;  //set the max beat
     974:	86 e0       	ldi	r24, 0x06	; 6
     976:	90 e0       	ldi	r25, 0x00	; 0
     978:	90 93 4a 01 	sts	0x014A, r25	; 0x80014a <max_beat+0x1>
     97c:	80 93 49 01 	sts	0x0149, r24	; 0x800149 <max_beat>
	break;
      } 
      break;
    case 4: switch (note) {
      case 'A': if(flat){OCR1A=Ab4;}
        else {OCR1A=A4;}
     980:	8b e1       	ldi	r24, 0x1B	; 27
     982:	91 e0       	ldi	r25, 0x01	; 1
     984:	9b bd       	out	0x2b, r25	; 43
     986:	8a bd       	out	0x2a, r24	; 42
     988:	08 95       	ret
  //octave must be 0-8 (0 is the lowest, 8 doesn't sound very good)
  //duration is in 64th notes at 120bpm
  //e.g. play_note('D', 1, 0, 16)
  //this would play a Db, octave 0 for 1 quarter note
  //120 bpm (every 32ms inc beat)
  PORTD &= unmute;      //unmute (just in case)
     98a:	92 98       	cbi	0x12, 2	; 18
  beat = 0;             //reset the beat counter
     98c:	10 92 4c 01 	sts	0x014C, r1	; 0x80014c <beat+0x1>
     990:	10 92 4b 01 	sts	0x014B, r1	; 0x80014b <beat>
  max_beat = duration;  //set the max beat
     994:	82 e0       	ldi	r24, 0x02	; 2
     996:	90 e0       	ldi	r25, 0x00	; 0
     998:	90 93 4a 01 	sts	0x014A, r25	; 0x80014a <max_beat+0x1>
     99c:	80 93 49 01 	sts	0x0149, r24	; 0x800149 <max_beat>
        else {OCR1A=G3;}
	break;
      } 
      break;
    case 4: switch (note) {
      case 'A': if(flat){OCR1A=Ab4;}
     9a0:	8b e2       	ldi	r24, 0x2B	; 43
     9a2:	91 e0       	ldi	r25, 0x01	; 1
     9a4:	9b bd       	out	0x2b, r25	; 43
     9a6:	8a bd       	out	0x2a, r24	; 42
     9a8:	08 95       	ret
  //octave must be 0-8 (0 is the lowest, 8 doesn't sound very good)
  //duration is in 64th notes at 120bpm
  //e.g. play_note('D', 1, 0, 16)
  //this would play a Db, octave 0 for 1 quarter note
  //120 bpm (every 32ms inc beat)
  PORTD &= unmute;      //unmute (just in case)
     9aa:	92 98       	cbi	0x12, 2	; 18
  beat = 0;             //reset the beat counter
     9ac:	10 92 4c 01 	sts	0x014C, r1	; 0x80014c <beat+0x1>
     9b0:	10 92 4b 01 	sts	0x014B, r1	; 0x80014b <beat>
  max_beat = duration;  //set the max beat
     9b4:	88 e0       	ldi	r24, 0x08	; 8
     9b6:	90 e0       	ldi	r25, 0x00	; 0
     9b8:	90 93 4a 01 	sts	0x014A, r25	; 0x80014a <max_beat+0x1>
     9bc:	80 93 49 01 	sts	0x0149, r24	; 0x800149 <max_beat>
        else {OCR1A=B4;}
	break;
      case 'C': OCR1A=C4;
	break;
      case 'D': if(flat){OCR1A=Db4;}
        else {OCR1A=D4;}
     9c0:	88 ea       	ldi	r24, 0xA8	; 168
     9c2:	91 e0       	ldi	r25, 0x01	; 1
     9c4:	9b bd       	out	0x2b, r25	; 43
     9c6:	8a bd       	out	0x2a, r24	; 42
     9c8:	08 95       	ret
  //octave must be 0-8 (0 is the lowest, 8 doesn't sound very good)
  //duration is in 64th notes at 120bpm
  //e.g. play_note('D', 1, 0, 16)
  //this would play a Db, octave 0 for 1 quarter note
  //120 bpm (every 32ms inc beat)
  PORTD &= unmute;      //unmute (just in case)
     9ca:	92 98       	cbi	0x12, 2	; 18
  beat = 0;             //reset the beat counter
     9cc:	10 92 4c 01 	sts	0x014C, r1	; 0x80014c <beat+0x1>
     9d0:	10 92 4b 01 	sts	0x014B, r1	; 0x80014b <beat>
  max_beat = duration;  //set the max beat
     9d4:	88 e0       	ldi	r24, 0x08	; 8
     9d6:	90 e0       	ldi	r25, 0x00	; 0
     9d8:	90 93 4a 01 	sts	0x014A, r25	; 0x80014a <max_beat+0x1>
     9dc:	80 93 49 01 	sts	0x0149, r24	; 0x800149 <max_beat>
        else {OCR1A=D4;}
	break;
      case 'E': if(flat){OCR1A=Eb4;}
        else {OCR1A=E4;}
	break;
      case 'F': OCR1A=F4;
     9e0:	84 e6       	ldi	r24, 0x64	; 100
     9e2:	91 e0       	ldi	r25, 0x01	; 1
     9e4:	9b bd       	out	0x2b, r25	; 43
     9e6:	8a bd       	out	0x2a, r24	; 42
     9e8:	08 95       	ret
  //octave must be 0-8 (0 is the lowest, 8 doesn't sound very good)
  //duration is in 64th notes at 120bpm
  //e.g. play_note('D', 1, 0, 16)
  //this would play a Db, octave 0 for 1 quarter note
  //120 bpm (every 32ms inc beat)
  PORTD &= unmute;      //unmute (just in case)
     9ea:	92 98       	cbi	0x12, 2	; 18
  beat = 0;             //reset the beat counter
     9ec:	10 92 4c 01 	sts	0x014C, r1	; 0x80014c <beat+0x1>
     9f0:	10 92 4b 01 	sts	0x014B, r1	; 0x80014b <beat>
  max_beat = duration;  //set the max beat
     9f4:	86 e0       	ldi	r24, 0x06	; 6
     9f6:	90 e0       	ldi	r25, 0x00	; 0
     9f8:	90 93 4a 01 	sts	0x014A, r25	; 0x80014a <max_beat+0x1>
     9fc:	80 93 49 01 	sts	0x0149, r24	; 0x800149 <max_beat>
      break;
    case 4: switch (note) {
      case 'A': if(flat){OCR1A=Ab4;}
        else {OCR1A=A4;}
	break;
      case 'B': if(flat){OCR1A=Bb4;}
     a00:	8b e0       	ldi	r24, 0x0B	; 11
     a02:	91 e0       	ldi	r25, 0x01	; 1
     a04:	9b bd       	out	0x2b, r25	; 43
     a06:	8a bd       	out	0x2a, r24	; 42
     a08:	08 95       	ret
  //octave must be 0-8 (0 is the lowest, 8 doesn't sound very good)
  //duration is in 64th notes at 120bpm
  //e.g. play_note('D', 1, 0, 16)
  //this would play a Db, octave 0 for 1 quarter note
  //120 bpm (every 32ms inc beat)
  PORTD &= unmute;      //unmute (just in case)
     a0a:	92 98       	cbi	0x12, 2	; 18
  beat = 0;             //reset the beat counter
     a0c:	10 92 4c 01 	sts	0x014C, r1	; 0x80014c <beat+0x1>
     a10:	10 92 4b 01 	sts	0x014B, r1	; 0x80014b <beat>
  max_beat = duration;  //set the max beat
     a14:	88 e0       	ldi	r24, 0x08	; 8
     a16:	90 e0       	ldi	r25, 0x00	; 0
     a18:	90 93 4a 01 	sts	0x014A, r25	; 0x80014a <max_beat+0x1>
     a1c:	80 93 49 01 	sts	0x0149, r24	; 0x800149 <max_beat>
        else {OCR1A=A4;}
	break;
      case 'B': if(flat){OCR1A=Bb4;}
        else {OCR1A=B4;}
	break;
      case 'C': OCR1A=C4;
     a20:	8c ed       	ldi	r24, 0xDC	; 220
     a22:	91 e0       	ldi	r25, 0x01	; 1
     a24:	9b bd       	out	0x2b, r25	; 43
     a26:	8a bd       	out	0x2a, r24	; 42
     a28:	08 95       	ret
  //octave must be 0-8 (0 is the lowest, 8 doesn't sound very good)
  //duration is in 64th notes at 120bpm
  //e.g. play_note('D', 1, 0, 16)
  //this would play a Db, octave 0 for 1 quarter note
  //120 bpm (every 32ms inc beat)
  PORTD &= unmute;      //unmute (just in case)
     a2a:	92 98       	cbi	0x12, 2	; 18
  beat = 0;             //reset the beat counter
     a2c:	10 92 4c 01 	sts	0x014C, r1	; 0x80014c <beat+0x1>
     a30:	10 92 4b 01 	sts	0x014B, r1	; 0x80014b <beat>
  max_beat = duration;  //set the max beat
     a34:	88 e0       	ldi	r24, 0x08	; 8
     a36:	90 e0       	ldi	r25, 0x00	; 0
     a38:	90 93 4a 01 	sts	0x014A, r25	; 0x80014a <max_beat+0x1>
     a3c:	80 93 49 01 	sts	0x0149, r24	; 0x800149 <max_beat>
	break;
      } 
      break;
    case 4: switch (note) {
      case 'A': if(flat){OCR1A=Ab4;}
        else {OCR1A=A4;}
     a40:	8b e1       	ldi	r24, 0x1B	; 27
     a42:	91 e0       	ldi	r25, 0x01	; 1
     a44:	9b bd       	out	0x2b, r25	; 43
     a46:	8a bd       	out	0x2a, r24	; 42
     a48:	08 95       	ret
  //octave must be 0-8 (0 is the lowest, 8 doesn't sound very good)
  //duration is in 64th notes at 120bpm
  //e.g. play_note('D', 1, 0, 16)
  //this would play a Db, octave 0 for 1 quarter note
  //120 bpm (every 32ms inc beat)
  PORTD &= unmute;      //unmute (just in case)
     a4a:	92 98       	cbi	0x12, 2	; 18
  beat = 0;             //reset the beat counter
     a4c:	10 92 4c 01 	sts	0x014C, r1	; 0x80014c <beat+0x1>
     a50:	10 92 4b 01 	sts	0x014B, r1	; 0x80014b <beat>
  max_beat = duration;  //set the max beat
     a54:	88 e0       	ldi	r24, 0x08	; 8
     a56:	90 e0       	ldi	r25, 0x00	; 0
     a58:	90 93 4a 01 	sts	0x014A, r25	; 0x80014a <max_beat+0x1>
     a5c:	80 93 49 01 	sts	0x0149, r24	; 0x800149 <max_beat>
        else {OCR1A=E4;}
	break;
      case 'F': OCR1A=F4;
	break;
      case 'G': if(flat){OCR1A=Gb4;}
        else {OCR1A=G4;}
     a60:	8d e3       	ldi	r24, 0x3D	; 61
     a62:	91 e0       	ldi	r25, 0x01	; 1
     a64:	9b bd       	out	0x2b, r25	; 43
     a66:	8a bd       	out	0x2a, r24	; 42
     a68:	08 95       	ret
  //octave must be 0-8 (0 is the lowest, 8 doesn't sound very good)
  //duration is in 64th notes at 120bpm
  //e.g. play_note('D', 1, 0, 16)
  //this would play a Db, octave 0 for 1 quarter note
  //120 bpm (every 32ms inc beat)
  PORTD &= unmute;      //unmute (just in case)
     a6a:	92 98       	cbi	0x12, 2	; 18
  beat = 0;             //reset the beat counter
     a6c:	10 92 4c 01 	sts	0x014C, r1	; 0x80014c <beat+0x1>
     a70:	10 92 4b 01 	sts	0x014B, r1	; 0x80014b <beat>
  max_beat = duration;  //set the max beat
     a74:	88 e0       	ldi	r24, 0x08	; 8
     a76:	90 e0       	ldi	r25, 0x00	; 0
     a78:	90 93 4a 01 	sts	0x014A, r25	; 0x80014a <max_beat+0x1>
     a7c:	80 93 49 01 	sts	0x0149, r24	; 0x800149 <max_beat>
	break;
      case 'D': if(flat){OCR1A=Db4;}
        else {OCR1A=D4;}
	break;
      case 'E': if(flat){OCR1A=Eb4;}
        else {OCR1A=E4;}
     a80:	8a e7       	ldi	r24, 0x7A	; 122
     a82:	91 e0       	ldi	r25, 0x01	; 1
     a84:	9b bd       	out	0x2b, r25	; 43
     a86:	8a bd       	out	0x2a, r24	; 42
     a88:	08 95       	ret
  //octave must be 0-8 (0 is the lowest, 8 doesn't sound very good)
  //duration is in 64th notes at 120bpm
  //e.g. play_note('D', 1, 0, 16)
  //this would play a Db, octave 0 for 1 quarter note
  //120 bpm (every 32ms inc beat)
  PORTD &= unmute;      //unmute (just in case)
     a8a:	92 98       	cbi	0x12, 2	; 18
  beat = 0;             //reset the beat counter
     a8c:	10 92 4c 01 	sts	0x014C, r1	; 0x80014c <beat+0x1>
     a90:	10 92 4b 01 	sts	0x014B, r1	; 0x80014b <beat>
  max_beat = duration;  //set the max beat
     a94:	80 e1       	ldi	r24, 0x10	; 16
     a96:	90 e0       	ldi	r25, 0x00	; 0
     a98:	90 93 4a 01 	sts	0x014A, r25	; 0x80014a <max_beat+0x1>
     a9c:	80 93 49 01 	sts	0x0149, r24	; 0x800149 <max_beat>
	break;
      } 
      break;
    case 4: switch (note) {
      case 'A': if(flat){OCR1A=Ab4;}
        else {OCR1A=A4;}
     aa0:	8b e1       	ldi	r24, 0x1B	; 27
     aa2:	91 e0       	ldi	r25, 0x01	; 1
     aa4:	9b bd       	out	0x2b, r25	; 43
     aa6:	8a bd       	out	0x2a, r24	; 42
     aa8:	08 95       	ret
  //octave must be 0-8 (0 is the lowest, 8 doesn't sound very good)
  //duration is in 64th notes at 120bpm
  //e.g. play_note('D', 1, 0, 16)
  //this would play a Db, octave 0 for 1 quarter note
  //120 bpm (every 32ms inc beat)
  PORTD &= unmute;      //unmute (just in case)
     aaa:	92 98       	cbi	0x12, 2	; 18
  beat = 0;             //reset the beat counter
     aac:	10 92 4c 01 	sts	0x014C, r1	; 0x80014c <beat+0x1>
     ab0:	10 92 4b 01 	sts	0x014B, r1	; 0x80014b <beat>
  max_beat = duration;  //set the max beat
     ab4:	84 e0       	ldi	r24, 0x04	; 4
     ab6:	90 e0       	ldi	r25, 0x00	; 0
     ab8:	90 93 4a 01 	sts	0x014A, r25	; 0x80014a <max_beat+0x1>
     abc:	80 93 49 01 	sts	0x0149, r24	; 0x800149 <max_beat>
        else {OCR1A=A5;}
	break;
      case 'B': if(flat){OCR1A=Bb5;}
        else {OCR1A=B5;}
	break;
      case 'C': OCR1A=C5;
     ac0:	8d ee       	ldi	r24, 0xED	; 237
     ac2:	90 e0       	ldi	r25, 0x00	; 0
     ac4:	9b bd       	out	0x2b, r25	; 43
     ac6:	8a bd       	out	0x2a, r24	; 42
     ac8:	08 95       	ret
  //octave must be 0-8 (0 is the lowest, 8 doesn't sound very good)
  //duration is in 64th notes at 120bpm
  //e.g. play_note('D', 1, 0, 16)
  //this would play a Db, octave 0 for 1 quarter note
  //120 bpm (every 32ms inc beat)
  PORTD &= unmute;      //unmute (just in case)
     aca:	92 98       	cbi	0x12, 2	; 18
  beat = 0;             //reset the beat counter
     acc:	10 92 4c 01 	sts	0x014C, r1	; 0x80014c <beat+0x1>
     ad0:	10 92 4b 01 	sts	0x014B, r1	; 0x80014b <beat>
  max_beat = duration;  //set the max beat
     ad4:	84 e0       	ldi	r24, 0x04	; 4
     ad6:	90 e0       	ldi	r25, 0x00	; 0
     ad8:	90 93 4a 01 	sts	0x014A, r25	; 0x80014a <max_beat+0x1>
     adc:	80 93 49 01 	sts	0x0149, r24	; 0x800149 <max_beat>
        else {OCR1A=B5;}
	break;
      case 'C': OCR1A=C5;
	break;
      case 'D': if(flat){OCR1A=Db5;}
        else {OCR1A=D5;}
     ae0:	83 ed       	ldi	r24, 0xD3	; 211
     ae2:	90 e0       	ldi	r25, 0x00	; 0
     ae4:	9b bd       	out	0x2b, r25	; 43
     ae6:	8a bd       	out	0x2a, r24	; 42
     ae8:	08 95       	ret
  }
}
void play_rest(uint8_t duration) {
  //mute for duration
  //duration is in 64th notes at 120bpm
  PORTD |= mute;
     aea:	92 9a       	sbi	0x12, 2	; 18
  beat=0;
     aec:	10 92 4c 01 	sts	0x014C, r1	; 0x80014c <beat+0x1>
     af0:	10 92 4b 01 	sts	0x014B, r1	; 0x80014b <beat>
  max_beat = duration;
     af4:	88 e0       	ldi	r24, 0x08	; 8
     af6:	90 e0       	ldi	r25, 0x00	; 0
     af8:	90 93 4a 01 	sts	0x014A, r25	; 0x80014a <max_beat+0x1>
     afc:	80 93 49 01 	sts	0x0149, r24	; 0x800149 <max_beat>
     b00:	08 95       	ret
  }
}
void play_rest(uint8_t duration) {
  //mute for duration
  //duration is in 64th notes at 120bpm
  PORTD |= mute;
     b02:	92 9a       	sbi	0x12, 2	; 18
  beat=0;
     b04:	10 92 4c 01 	sts	0x014C, r1	; 0x80014c <beat+0x1>
     b08:	10 92 4b 01 	sts	0x014B, r1	; 0x80014b <beat>
  max_beat = duration;
     b0c:	81 e0       	ldi	r24, 0x01	; 1
     b0e:	90 e0       	ldi	r25, 0x00	; 0
     b10:	90 93 4a 01 	sts	0x014A, r25	; 0x80014a <max_beat+0x1>
     b14:	80 93 49 01 	sts	0x0149, r24	; 0x800149 <max_beat>
     b18:	08 95       	ret
  //octave must be 0-8 (0 is the lowest, 8 doesn't sound very good)
  //duration is in 64th notes at 120bpm
  //e.g. play_note('D', 1, 0, 16)
  //this would play a Db, octave 0 for 1 quarter note
  //120 bpm (every 32ms inc beat)
  PORTD &= unmute;      //unmute (just in case)
     b1a:	92 98       	cbi	0x12, 2	; 18
  beat = 0;             //reset the beat counter
     b1c:	10 92 4c 01 	sts	0x014C, r1	; 0x80014c <beat+0x1>
     b20:	10 92 4b 01 	sts	0x014B, r1	; 0x80014b <beat>
  max_beat = duration;  //set the max beat
     b24:	80 e1       	ldi	r24, 0x10	; 16
     b26:	90 e0       	ldi	r25, 0x00	; 0
     b28:	90 93 4a 01 	sts	0x014A, r25	; 0x80014a <max_beat+0x1>
     b2c:	80 93 49 01 	sts	0x0149, r24	; 0x800149 <max_beat>
      break;
    case 4: switch (note) {
      case 'A': if(flat){OCR1A=Ab4;}
        else {OCR1A=A4;}
	break;
      case 'B': if(flat){OCR1A=Bb4;}
     b30:	8b e0       	ldi	r24, 0x0B	; 11
     b32:	91 e0       	ldi	r25, 0x01	; 1
     b34:	9b bd       	out	0x2b, r25	; 43
     b36:	8a bd       	out	0x2a, r24	; 42
     b38:	08 95       	ret
  //octave must be 0-8 (0 is the lowest, 8 doesn't sound very good)
  //duration is in 64th notes at 120bpm
  //e.g. play_note('D', 1, 0, 16)
  //this would play a Db, octave 0 for 1 quarter note
  //120 bpm (every 32ms inc beat)
  PORTD &= unmute;      //unmute (just in case)
     b3a:	92 98       	cbi	0x12, 2	; 18
  beat = 0;             //reset the beat counter
     b3c:	10 92 4c 01 	sts	0x014C, r1	; 0x80014c <beat+0x1>
     b40:	10 92 4b 01 	sts	0x014B, r1	; 0x80014b <beat>
  max_beat = duration;  //set the max beat
     b44:	88 e0       	ldi	r24, 0x08	; 8
     b46:	90 e0       	ldi	r25, 0x00	; 0
     b48:	90 93 4a 01 	sts	0x014A, r25	; 0x80014a <max_beat+0x1>
     b4c:	80 93 49 01 	sts	0x0149, r24	; 0x800149 <max_beat>
      break;
    case 4: switch (note) {
      case 'A': if(flat){OCR1A=Ab4;}
        else {OCR1A=A4;}
	break;
      case 'B': if(flat){OCR1A=Bb4;}
     b50:	8b e0       	ldi	r24, 0x0B	; 11
     b52:	91 e0       	ldi	r25, 0x01	; 1
     b54:	9b bd       	out	0x2b, r25	; 43
     b56:	8a bd       	out	0x2a, r24	; 42
     b58:	08 95       	ret
  //octave must be 0-8 (0 is the lowest, 8 doesn't sound very good)
  //duration is in 64th notes at 120bpm
  //e.g. play_note('D', 1, 0, 16)
  //this would play a Db, octave 0 for 1 quarter note
  //120 bpm (every 32ms inc beat)
  PORTD &= unmute;      //unmute (just in case)
     b5a:	92 98       	cbi	0x12, 2	; 18
  beat = 0;             //reset the beat counter
     b5c:	10 92 4c 01 	sts	0x014C, r1	; 0x80014c <beat+0x1>
     b60:	10 92 4b 01 	sts	0x014B, r1	; 0x80014b <beat>
  max_beat = duration;  //set the max beat
     b64:	88 e1       	ldi	r24, 0x18	; 24
     b66:	90 e0       	ldi	r25, 0x00	; 0
     b68:	90 93 4a 01 	sts	0x014A, r25	; 0x80014a <max_beat+0x1>
     b6c:	80 93 49 01 	sts	0x0149, r24	; 0x800149 <max_beat>
        else {OCR1A=E4;}
	break;
      case 'F': OCR1A=F4;
	break;
      case 'G': if(flat){OCR1A=Gb4;}
        else {OCR1A=G4;}
     b70:	8d e3       	ldi	r24, 0x3D	; 61
     b72:	91 e0       	ldi	r25, 0x01	; 1
     b74:	9b bd       	out	0x2b, r25	; 43
     b76:	8a bd       	out	0x2a, r24	; 42
     b78:	08 95       	ret
  //octave must be 0-8 (0 is the lowest, 8 doesn't sound very good)
  //duration is in 64th notes at 120bpm
  //e.g. play_note('D', 1, 0, 16)
  //this would play a Db, octave 0 for 1 quarter note
  //120 bpm (every 32ms inc beat)
  PORTD &= unmute;      //unmute (just in case)
     b7a:	92 98       	cbi	0x12, 2	; 18
  beat = 0;             //reset the beat counter
     b7c:	10 92 4c 01 	sts	0x014C, r1	; 0x80014c <beat+0x1>
     b80:	10 92 4b 01 	sts	0x014B, r1	; 0x80014b <beat>
  max_beat = duration;  //set the max beat
     b84:	80 e1       	ldi	r24, 0x10	; 16
     b86:	90 e0       	ldi	r25, 0x00	; 0
     b88:	90 93 4a 01 	sts	0x014A, r25	; 0x80014a <max_beat+0x1>
     b8c:	80 93 49 01 	sts	0x0149, r24	; 0x800149 <max_beat>
        else {OCR1A=B5;}
	break;
      case 'C': OCR1A=C5;
	break;
      case 'D': if(flat){OCR1A=Db5;}
        else {OCR1A=D5;}
     b90:	83 ed       	ldi	r24, 0xD3	; 211
     b92:	90 e0       	ldi	r25, 0x00	; 0
     b94:	9b bd       	out	0x2b, r25	; 43
     b96:	8a bd       	out	0x2a, r24	; 42
     b98:	08 95       	ret
  }
}
void play_rest(uint8_t duration) {
  //mute for duration
  //duration is in 64th notes at 120bpm
  PORTD |= mute;
     b9a:	92 9a       	sbi	0x12, 2	; 18
  beat=0;
     b9c:	10 92 4c 01 	sts	0x014C, r1	; 0x80014c <beat+0x1>
     ba0:	10 92 4b 01 	sts	0x014B, r1	; 0x80014b <beat>
  max_beat = duration;
     ba4:	82 e0       	ldi	r24, 0x02	; 2
     ba6:	90 e0       	ldi	r25, 0x00	; 0
     ba8:	90 93 4a 01 	sts	0x014A, r25	; 0x80014a <max_beat+0x1>
     bac:	80 93 49 01 	sts	0x0149, r24	; 0x800149 <max_beat>
     bb0:	08 95       	ret
  //octave must be 0-8 (0 is the lowest, 8 doesn't sound very good)
  //duration is in 64th notes at 120bpm
  //e.g. play_note('D', 1, 0, 16)
  //this would play a Db, octave 0 for 1 quarter note
  //120 bpm (every 32ms inc beat)
  PORTD &= unmute;      //unmute (just in case)
     bb2:	92 98       	cbi	0x12, 2	; 18
  beat = 0;             //reset the beat counter
     bb4:	10 92 4c 01 	sts	0x014C, r1	; 0x80014c <beat+0x1>
     bb8:	10 92 4b 01 	sts	0x014B, r1	; 0x80014b <beat>
  max_beat = duration;  //set the max beat
     bbc:	84 e0       	ldi	r24, 0x04	; 4
     bbe:	90 e0       	ldi	r25, 0x00	; 0
     bc0:	90 93 4a 01 	sts	0x014A, r25	; 0x80014a <max_beat+0x1>
     bc4:	80 93 49 01 	sts	0x0149, r24	; 0x800149 <max_beat>
	break;
      } 
      break;
    case 4: switch (note) {
      case 'A': if(flat){OCR1A=Ab4;}
        else {OCR1A=A4;}
     bc8:	8b e1       	ldi	r24, 0x1B	; 27
     bca:	91 e0       	ldi	r25, 0x01	; 1
     bcc:	9b bd       	out	0x2b, r25	; 43
     bce:	8a bd       	out	0x2a, r24	; 42
     bd0:	08 95       	ret
  //octave must be 0-8 (0 is the lowest, 8 doesn't sound very good)
  //duration is in 64th notes at 120bpm
  //e.g. play_note('D', 1, 0, 16)
  //this would play a Db, octave 0 for 1 quarter note
  //120 bpm (every 32ms inc beat)
  PORTD &= unmute;      //unmute (just in case)
     bd2:	92 98       	cbi	0x12, 2	; 18
  beat = 0;             //reset the beat counter
     bd4:	10 92 4c 01 	sts	0x014C, r1	; 0x80014c <beat+0x1>
     bd8:	10 92 4b 01 	sts	0x014B, r1	; 0x80014b <beat>
  max_beat = duration;  //set the max beat
     bdc:	86 e0       	ldi	r24, 0x06	; 6
     bde:	90 e0       	ldi	r25, 0x00	; 0
     be0:	90 93 4a 01 	sts	0x014A, r25	; 0x80014a <max_beat+0x1>
     be4:	80 93 49 01 	sts	0x0149, r24	; 0x800149 <max_beat>
        else {OCR1A=E4;}
	break;
      case 'F': OCR1A=F4;
	break;
      case 'G': if(flat){OCR1A=Gb4;}
        else {OCR1A=G4;}
     be8:	8d e3       	ldi	r24, 0x3D	; 61
     bea:	91 e0       	ldi	r25, 0x01	; 1
     bec:	9b bd       	out	0x2b, r25	; 43
     bee:	8a bd       	out	0x2a, r24	; 42
     bf0:	08 95       	ret
  //octave must be 0-8 (0 is the lowest, 8 doesn't sound very good)
  //duration is in 64th notes at 120bpm
  //e.g. play_note('D', 1, 0, 16)
  //this would play a Db, octave 0 for 1 quarter note
  //120 bpm (every 32ms inc beat)
  PORTD &= unmute;      //unmute (just in case)
     bf2:	92 98       	cbi	0x12, 2	; 18
  beat = 0;             //reset the beat counter
     bf4:	10 92 4c 01 	sts	0x014C, r1	; 0x80014c <beat+0x1>
     bf8:	10 92 4b 01 	sts	0x014B, r1	; 0x80014b <beat>
  max_beat = duration;  //set the max beat
     bfc:	84 e0       	ldi	r24, 0x04	; 4
     bfe:	90 e0       	ldi	r25, 0x00	; 0
     c00:	90 93 4a 01 	sts	0x014A, r25	; 0x80014a <max_beat+0x1>
     c04:	80 93 49 01 	sts	0x0149, r24	; 0x800149 <max_beat>
      case 'E': if(flat){OCR1A=Eb4;}
        else {OCR1A=E4;}
	break;
      case 'F': OCR1A=F4;
	break;
      case 'G': if(flat){OCR1A=Gb4;}
     c08:	80 e5       	ldi	r24, 0x50	; 80
     c0a:	91 e0       	ldi	r25, 0x01	; 1
     c0c:	9b bd       	out	0x2b, r25	; 43
     c0e:	8a bd       	out	0x2a, r24	; 42
     c10:	08 95       	ret
  //octave must be 0-8 (0 is the lowest, 8 doesn't sound very good)
  //duration is in 64th notes at 120bpm
  //e.g. play_note('D', 1, 0, 16)
  //this would play a Db, octave 0 for 1 quarter note
  //120 bpm (every 32ms inc beat)
  PORTD &= unmute;      //unmute (just in case)
     c12:	92 98       	cbi	0x12, 2	; 18
  beat = 0;             //reset the beat counter
     c14:	10 92 4c 01 	sts	0x014C, r1	; 0x80014c <beat+0x1>
     c18:	10 92 4b 01 	sts	0x014B, r1	; 0x80014b <beat>
  max_beat = duration;  //set the max beat
     c1c:	88 e0       	ldi	r24, 0x08	; 8
     c1e:	90 e0       	ldi	r25, 0x00	; 0
     c20:	90 93 4a 01 	sts	0x014A, r25	; 0x80014a <max_beat+0x1>
     c24:	80 93 49 01 	sts	0x0149, r24	; 0x800149 <max_beat>
      case 'E': if(flat){OCR1A=Eb4;}
        else {OCR1A=E4;}
	break;
      case 'F': OCR1A=F4;
	break;
      case 'G': if(flat){OCR1A=Gb4;}
     c28:	80 e5       	ldi	r24, 0x50	; 80
     c2a:	91 e0       	ldi	r25, 0x01	; 1
     c2c:	9b bd       	out	0x2b, r25	; 43
     c2e:	8a bd       	out	0x2a, r24	; 42
     c30:	08 95       	ret
  //octave must be 0-8 (0 is the lowest, 8 doesn't sound very good)
  //duration is in 64th notes at 120bpm
  //e.g. play_note('D', 1, 0, 16)
  //this would play a Db, octave 0 for 1 quarter note
  //120 bpm (every 32ms inc beat)
  PORTD &= unmute;      //unmute (just in case)
     c32:	92 98       	cbi	0x12, 2	; 18
  beat = 0;             //reset the beat counter
     c34:	10 92 4c 01 	sts	0x014C, r1	; 0x80014c <beat+0x1>
     c38:	10 92 4b 01 	sts	0x014B, r1	; 0x80014b <beat>
  max_beat = duration;  //set the max beat
     c3c:	83 e0       	ldi	r24, 0x03	; 3
     c3e:	90 e0       	ldi	r25, 0x00	; 0
     c40:	90 93 4a 01 	sts	0x014A, r25	; 0x80014a <max_beat+0x1>
     c44:	80 93 49 01 	sts	0x0149, r24	; 0x800149 <max_beat>
        else {OCR1A=E4;}
	break;
      case 'F': OCR1A=F4;
	break;
      case 'G': if(flat){OCR1A=Gb4;}
        else {OCR1A=G4;}
     c48:	8d e3       	ldi	r24, 0x3D	; 61
     c4a:	91 e0       	ldi	r25, 0x01	; 1
     c4c:	9b bd       	out	0x2b, r25	; 43
     c4e:	8a bd       	out	0x2a, r24	; 42
     c50:	08 95       	ret
  //octave must be 0-8 (0 is the lowest, 8 doesn't sound very good)
  //duration is in 64th notes at 120bpm
  //e.g. play_note('D', 1, 0, 16)
  //this would play a Db, octave 0 for 1 quarter note
  //120 bpm (every 32ms inc beat)
  PORTD &= unmute;      //unmute (just in case)
     c52:	92 98       	cbi	0x12, 2	; 18
  beat = 0;             //reset the beat counter
     c54:	10 92 4c 01 	sts	0x014C, r1	; 0x80014c <beat+0x1>
     c58:	10 92 4b 01 	sts	0x014B, r1	; 0x80014b <beat>
  max_beat = duration;  //set the max beat
     c5c:	80 e1       	ldi	r24, 0x10	; 16
     c5e:	90 e0       	ldi	r25, 0x00	; 0
     c60:	90 93 4a 01 	sts	0x014A, r25	; 0x80014a <max_beat+0x1>
     c64:	80 93 49 01 	sts	0x0149, r24	; 0x800149 <max_beat>
        else {OCR1A=B4;}
	break;
      case 'C': OCR1A=C4;
	break;
      case 'D': if(flat){OCR1A=Db4;}
        else {OCR1A=D4;}
     c68:	88 ea       	ldi	r24, 0xA8	; 168
     c6a:	91 e0       	ldi	r25, 0x01	; 1
     c6c:	9b bd       	out	0x2b, r25	; 43
     c6e:	8a bd       	out	0x2a, r24	; 42
     c70:	08 95       	ret
  //octave must be 0-8 (0 is the lowest, 8 doesn't sound very good)
  //duration is in 64th notes at 120bpm
  //e.g. play_note('D', 1, 0, 16)
  //this would play a Db, octave 0 for 1 quarter note
  //120 bpm (every 32ms inc beat)
  PORTD &= unmute;      //unmute (just in case)
     c72:	92 98       	cbi	0x12, 2	; 18
  beat = 0;             //reset the beat counter
     c74:	10 92 4c 01 	sts	0x014C, r1	; 0x80014c <beat+0x1>
     c78:	10 92 4b 01 	sts	0x014B, r1	; 0x80014b <beat>
  max_beat = duration;  //set the max beat
     c7c:	80 e1       	ldi	r24, 0x10	; 16
     c7e:	90 e0       	ldi	r25, 0x00	; 0
     c80:	90 93 4a 01 	sts	0x014A, r25	; 0x80014a <max_beat+0x1>
     c84:	80 93 49 01 	sts	0x0149, r24	; 0x800149 <max_beat>
        else {OCR1A=A5;}
	break;
      case 'B': if(flat){OCR1A=Bb5;}
        else {OCR1A=B5;}
	break;
      case 'C': OCR1A=C5;
     c88:	8d ee       	ldi	r24, 0xED	; 237
     c8a:	90 e0       	ldi	r25, 0x00	; 0
     c8c:	9b bd       	out	0x2b, r25	; 43
     c8e:	8a bd       	out	0x2a, r24	; 42
     c90:	08 95       	ret
  //octave must be 0-8 (0 is the lowest, 8 doesn't sound very good)
  //duration is in 64th notes at 120bpm
  //e.g. play_note('D', 1, 0, 16)
  //this would play a Db, octave 0 for 1 quarter note
  //120 bpm (every 32ms inc beat)
  PORTD &= unmute;      //unmute (just in case)
     c92:	92 98       	cbi	0x12, 2	; 18
  beat = 0;             //reset the beat counter
     c94:	10 92 4c 01 	sts	0x014C, r1	; 0x80014c <beat+0x1>
     c98:	10 92 4b 01 	sts	0x014B, r1	; 0x80014b <beat>
  max_beat = duration;  //set the max beat
     c9c:	82 e0       	ldi	r24, 0x02	; 2
     c9e:	90 e0       	ldi	r25, 0x00	; 0
     ca0:	90 93 4a 01 	sts	0x014A, r25	; 0x80014a <max_beat+0x1>
     ca4:	80 93 49 01 	sts	0x0149, r24	; 0x800149 <max_beat>
      break;
    case 4: switch (note) {
      case 'A': if(flat){OCR1A=Ab4;}
        else {OCR1A=A4;}
	break;
      case 'B': if(flat){OCR1A=Bb4;}
     ca8:	8b e0       	ldi	r24, 0x0B	; 11
     caa:	91 e0       	ldi	r25, 0x01	; 1
     cac:	9b bd       	out	0x2b, r25	; 43
     cae:	8a bd       	out	0x2a, r24	; 42
     cb0:	08 95       	ret
  //octave must be 0-8 (0 is the lowest, 8 doesn't sound very good)
  //duration is in 64th notes at 120bpm
  //e.g. play_note('D', 1, 0, 16)
  //this would play a Db, octave 0 for 1 quarter note
  //120 bpm (every 32ms inc beat)
  PORTD &= unmute;      //unmute (just in case)
     cb2:	92 98       	cbi	0x12, 2	; 18
  beat = 0;             //reset the beat counter
     cb4:	10 92 4c 01 	sts	0x014C, r1	; 0x80014c <beat+0x1>
     cb8:	10 92 4b 01 	sts	0x014B, r1	; 0x80014b <beat>
  max_beat = duration;  //set the max beat
     cbc:	84 e0       	ldi	r24, 0x04	; 4
     cbe:	90 e0       	ldi	r25, 0x00	; 0
     cc0:	90 93 4a 01 	sts	0x014A, r25	; 0x80014a <max_beat+0x1>
     cc4:	80 93 49 01 	sts	0x0149, r24	; 0x800149 <max_beat>
      case 'B': if(flat){OCR1A=Bb5;}
        else {OCR1A=B5;}
	break;
      case 'C': OCR1A=C5;
	break;
      case 'D': if(flat){OCR1A=Db5;}
     cc8:	80 ee       	ldi	r24, 0xE0	; 224
     cca:	90 e0       	ldi	r25, 0x00	; 0
     ccc:	9b bd       	out	0x2b, r25	; 43
     cce:	8a bd       	out	0x2a, r24	; 42
     cd0:	08 95       	ret
  //octave must be 0-8 (0 is the lowest, 8 doesn't sound very good)
  //duration is in 64th notes at 120bpm
  //e.g. play_note('D', 1, 0, 16)
  //this would play a Db, octave 0 for 1 quarter note
  //120 bpm (every 32ms inc beat)
  PORTD &= unmute;      //unmute (just in case)
     cd2:	92 98       	cbi	0x12, 2	; 18
  beat = 0;             //reset the beat counter
     cd4:	10 92 4c 01 	sts	0x014C, r1	; 0x80014c <beat+0x1>
     cd8:	10 92 4b 01 	sts	0x014B, r1	; 0x80014b <beat>
  max_beat = duration;  //set the max beat
     cdc:	84 e0       	ldi	r24, 0x04	; 4
     cde:	90 e0       	ldi	r25, 0x00	; 0
     ce0:	90 93 4a 01 	sts	0x014A, r25	; 0x80014a <max_beat+0x1>
     ce4:	80 93 49 01 	sts	0x0149, r24	; 0x800149 <max_beat>
        else {OCR1A=G3;}
	break;
      } 
      break;
    case 4: switch (note) {
      case 'A': if(flat){OCR1A=Ab4;}
     ce8:	8b e2       	ldi	r24, 0x2B	; 43
     cea:	91 e0       	ldi	r25, 0x01	; 1
     cec:	9b bd       	out	0x2b, r25	; 43
     cee:	8a bd       	out	0x2a, r24	; 42
     cf0:	08 95       	ret
  //octave must be 0-8 (0 is the lowest, 8 doesn't sound very good)
  //duration is in 64th notes at 120bpm
  //e.g. play_note('D', 1, 0, 16)
  //this would play a Db, octave 0 for 1 quarter note
  //120 bpm (every 32ms inc beat)
  PORTD &= unmute;      //unmute (just in case)
     cf2:	92 98       	cbi	0x12, 2	; 18
  beat = 0;             //reset the beat counter
     cf4:	10 92 4c 01 	sts	0x014C, r1	; 0x80014c <beat+0x1>
     cf8:	10 92 4b 01 	sts	0x014B, r1	; 0x80014b <beat>
  max_beat = duration;  //set the max beat
     cfc:	88 e0       	ldi	r24, 0x08	; 8
     cfe:	90 e0       	ldi	r25, 0x00	; 0
     d00:	90 93 4a 01 	sts	0x014A, r25	; 0x80014a <max_beat+0x1>
     d04:	80 93 49 01 	sts	0x0149, r24	; 0x800149 <max_beat>
    case 4: switch (note) {
      case 'A': if(flat){OCR1A=Ab4;}
        else {OCR1A=A4;}
	break;
      case 'B': if(flat){OCR1A=Bb4;}
        else {OCR1A=B4;}
     d08:	8c ef       	ldi	r24, 0xFC	; 252
     d0a:	90 e0       	ldi	r25, 0x00	; 0
     d0c:	9b bd       	out	0x2b, r25	; 43
     d0e:	8a bd       	out	0x2a, r24	; 42
     d10:	08 95       	ret
  //octave must be 0-8 (0 is the lowest, 8 doesn't sound very good)
  //duration is in 64th notes at 120bpm
  //e.g. play_note('D', 1, 0, 16)
  //this would play a Db, octave 0 for 1 quarter note
  //120 bpm (every 32ms inc beat)
  PORTD &= unmute;      //unmute (just in case)
     d12:	92 98       	cbi	0x12, 2	; 18
  beat = 0;             //reset the beat counter
     d14:	10 92 4c 01 	sts	0x014C, r1	; 0x80014c <beat+0x1>
     d18:	10 92 4b 01 	sts	0x014B, r1	; 0x80014b <beat>
  max_beat = duration;  //set the max beat
     d1c:	88 e1       	ldi	r24, 0x18	; 24
     d1e:	90 e0       	ldi	r25, 0x00	; 0
     d20:	90 93 4a 01 	sts	0x014A, r25	; 0x80014a <max_beat+0x1>
     d24:	80 93 49 01 	sts	0x0149, r24	; 0x800149 <max_beat>
        else {OCR1A=D4;}
	break;
      case 'E': if(flat){OCR1A=Eb4;}
        else {OCR1A=E4;}
	break;
      case 'F': OCR1A=F4;
     d28:	84 e6       	ldi	r24, 0x64	; 100
     d2a:	91 e0       	ldi	r25, 0x01	; 1
     d2c:	9b bd       	out	0x2b, r25	; 43
     d2e:	8a bd       	out	0x2a, r24	; 42
     d30:	08 95       	ret
  //octave must be 0-8 (0 is the lowest, 8 doesn't sound very good)
  //duration is in 64th notes at 120bpm
  //e.g. play_note('D', 1, 0, 16)
  //this would play a Db, octave 0 for 1 quarter note
  //120 bpm (every 32ms inc beat)
  PORTD &= unmute;      //unmute (just in case)
     d32:	92 98       	cbi	0x12, 2	; 18
  beat = 0;             //reset the beat counter
     d34:	10 92 4c 01 	sts	0x014C, r1	; 0x80014c <beat+0x1>
     d38:	10 92 4b 01 	sts	0x014B, r1	; 0x80014b <beat>
  max_beat = duration;  //set the max beat
     d3c:	87 e0       	ldi	r24, 0x07	; 7
     d3e:	90 e0       	ldi	r25, 0x00	; 0
     d40:	90 93 4a 01 	sts	0x014A, r25	; 0x80014a <max_beat+0x1>
     d44:	80 93 49 01 	sts	0x0149, r24	; 0x800149 <max_beat>
        else {OCR1A=E4;}
	break;
      case 'F': OCR1A=F4;
	break;
      case 'G': if(flat){OCR1A=Gb4;}
        else {OCR1A=G4;}
     d48:	8d e3       	ldi	r24, 0x3D	; 61
     d4a:	91 e0       	ldi	r25, 0x01	; 1
     d4c:	9b bd       	out	0x2b, r25	; 43
     d4e:	8a bd       	out	0x2a, r24	; 42
     d50:	08 95       	ret

00000d52 <play_song>:
  //if you add a song, you'll have to add it to this
  //switch statement.
  switch (song) {
  case 0: song0(note); //beaver fight song
    break;
  default: song0(note); //defaults to beaver fight song
     d52:	86 2f       	mov	r24, r22
     d54:	90 e0       	ldi	r25, 0x00	; 0
     d56:	0c 94 99 04 	jmp	0x932	; 0x932 <song0>

00000d5a <music_on>:
  PORTD |= mute;
}

void music_on(void) {
  //this starts the alarm timer running
  notes=0;
     d5a:	10 92 47 01 	sts	0x0147, r1	; 0x800147 <notes>
  TCCR1B |= (1<<CS11)|(1<<CS10);
     d5e:	8e b5       	in	r24, 0x2e	; 46
     d60:	83 60       	ori	r24, 0x03	; 3
     d62:	8e bd       	out	0x2e, r24	; 46
  //unmutes the output
  PORTD &= unmute;
     d64:	92 98       	cbi	0x12, 2	; 18
  //and starts the selected song
  play_song(song, notes);
     d66:	60 91 47 01 	lds	r22, 0x0147	; 0x800147 <notes>
     d6a:	80 91 48 01 	lds	r24, 0x0148	; 0x800148 <song>
     d6e:	0c 94 a9 06 	jmp	0xd52	; 0xd52 <play_song>

00000d72 <SPI_read>:
/*********************************************************************/
//              SPI_read(uint8_t currentBarGraph)
// Sends the bar graph data and then reads the SPI port.
/*********************************************************************/
uint16_t SPI_read(uint8_t currentBarGraph){
  PORTB &= 0x7F;
     d72:	c7 98       	cbi	0x18, 7	; 24
  SPDR = currentBarGraph;
     d74:	8f b9       	out	0x0f, r24	; 15
  while (bit_is_clear(SPSR,SPIF)){} //wait till 8 bits have been sent
     d76:	77 9b       	sbis	0x0e, 7	; 14
     d78:	fe cf       	rjmp	.-4      	; 0xd76 <SPI_read+0x4>
  //PORTD = 0xFF;
  //PORTD = 0x00;
  PORTE = 0x00;
     d7a:	13 b8       	out	0x03, r1	; 3
  PORTE = 0xFF;
     d7c:	8f ef       	ldi	r24, 0xFF	; 255
     d7e:	83 b9       	out	0x03, r24	; 3
  return(SPDR); //return incoming data from SPDR
     d80:	8f b1       	in	r24, 0x0f	; 15
}
     d82:	90 e0       	ldi	r25, 0x00	; 0
     d84:	08 95       	ret

00000d86 <chk_buttons>:
// Adapted to check all buttons from Ganssel's "Guide to Debouncing"            
// Expects active low pushbuttons on PINA port.  Debounce time is determined by 
// external loop delay times 12. 
// Edited to have a state array of size 8 for each button
//******************************************************************************
uint8_t chk_buttons(uint8_t buttons) {
     d86:	48 2f       	mov	r20, r24
  //Gansels debounce with the state as an array that is used to check against the values that buttons is at
  static uint16_t state[8] = {0}; //holds present state
  state[buttons] = (state[buttons] << 1) | (! bit_is_clear(PINA, buttons)) | 0xE000;
     d88:	e8 2f       	mov	r30, r24
     d8a:	f0 e0       	ldi	r31, 0x00	; 0
     d8c:	99 b3       	in	r25, 0x19	; 25
     d8e:	ee 0f       	add	r30, r30
     d90:	ff 1f       	adc	r31, r31
     d92:	eb 5c       	subi	r30, 0xCB	; 203
     d94:	fe 4f       	sbci	r31, 0xFE	; 254
     d96:	20 81       	ld	r18, Z
     d98:	31 81       	ldd	r19, Z+1	; 0x01
     d9a:	22 0f       	add	r18, r18
     d9c:	33 1f       	adc	r19, r19
     d9e:	30 6e       	ori	r19, 0xE0	; 224
     da0:	89 2f       	mov	r24, r25
     da2:	90 e0       	ldi	r25, 0x00	; 0
     da4:	02 c0       	rjmp	.+4      	; 0xdaa <chk_buttons+0x24>
     da6:	95 95       	asr	r25
     da8:	87 95       	ror	r24
     daa:	4a 95       	dec	r20
     dac:	e2 f7       	brpl	.-8      	; 0xda6 <chk_buttons+0x20>
     dae:	81 70       	andi	r24, 0x01	; 1
     db0:	99 27       	eor	r25, r25
     db2:	28 2b       	or	r18, r24
     db4:	39 2b       	or	r19, r25
     db6:	31 83       	std	Z+1, r19	; 0x01
     db8:	20 83       	st	Z, r18
     dba:	81 e0       	ldi	r24, 0x01	; 1
     dbc:	21 15       	cp	r18, r1
     dbe:	30 4f       	sbci	r19, 0xF0	; 240
     dc0:	09 f0       	breq	.+2      	; 0xdc4 <chk_buttons+0x3e>
     dc2:	80 e0       	ldi	r24, 0x00	; 0
  if (state[buttons] == 0xF000) return 1;
  return 0;
}
     dc4:	08 95       	ret

00000dc6 <segsum>:
//                                   segment_sum                                    
// takes a 16-bit binary input value and places the appropriate equivalent 4 digit 
// BCD segment code in the array segment_data for display.                       
// array is loaded at exit as:  |digit3|digit2|colon|digit1|digit0|
//***********************************************************************************
void segsum(uint16_t sum) {
     dc6:	0f 93       	push	r16
     dc8:	1f 93       	push	r17
     dca:	cf 93       	push	r28
     dcc:	df 93       	push	r29
     dce:	8c 01       	movw	r16, r24
     dd0:	30 91 05 01 	lds	r19, 0x0105	; 0x800105 <DecHex>
     dd4:	e3 2f       	mov	r30, r19
     dd6:	f0 e0       	ldi	r31, 0x00	; 0
     dd8:	ef 01       	movw	r28, r30
     dda:	21 97       	sbiw	r28, 0x01	; 1
  
  uint8_t  i = 0;
  uint8_t  digitNum = 1;
     ddc:	21 e0       	ldi	r18, 0x01	; 1
  uint16_t sumPlaceHolder = sum;
  while(i < 4 && sumPlaceHolder > (DecHex-1))	
     dde:	c8 17       	cp	r28, r24
     de0:	d9 07       	cpc	r29, r25
     de2:	60 f4       	brcc	.+24     	; 0xdfc <segsum+0x36>
  {
    sumPlaceHolder /= DecHex;
     de4:	bf 01       	movw	r22, r30
     de6:	0e 94 8e 10 	call	0x211c	; 0x211c <__udivmodhi4>
     dea:	cb 01       	movw	r24, r22
    digitNum++;
     dec:	2f 5f       	subi	r18, 0xFF	; 255
void segsum(uint16_t sum) {
  
  uint8_t  i = 0;
  uint8_t  digitNum = 1;
  uint16_t sumPlaceHolder = sum;
  while(i < 4 && sumPlaceHolder > (DecHex-1))	
     dee:	25 30       	cpi	r18, 0x05	; 5
     df0:	b1 f7       	brne	.-20     	; 0xdde <segsum+0x18>
      segment_data[1] = hex_to_7seg[(sum/(DecHex*DecHex))%DecHex];
      segment_data[0] = hex_to_7seg[sum/(DecHex*DecHex*DecHex)];
    default:
      break;
  }
}
     df2:	df 91       	pop	r29
     df4:	cf 91       	pop	r28
     df6:	1f 91       	pop	r17
     df8:	0f 91       	pop	r16
     dfa:	08 95       	ret
    sumPlaceHolder /= DecHex;
    digitNum++;
    i++;
  } 
  // Parses 0-4 digits into seperate segment_data[] locations 
  switch(digitNum)
     dfc:	23 30       	cpi	r18, 0x03	; 3
     dfe:	a1 f0       	breq	.+40     	; 0xe28 <segsum+0x62>
     e00:	24 30       	cpi	r18, 0x04	; 4
     e02:	09 f4       	brne	.+2      	; 0xe06 <segsum+0x40>
     e04:	55 c0       	rjmp	.+170    	; 0xeb0 <segsum+0xea>
     e06:	22 30       	cpi	r18, 0x02	; 2
     e08:	c1 f1       	breq	.+112    	; 0xe7a <segsum+0xb4>
  {
    case 1:
      segment_data[4] = hex_to_7seg[sum];
     e0a:	f8 01       	movw	r30, r16
     e0c:	e9 5f       	subi	r30, 0xF9	; 249
     e0e:	fe 4f       	sbci	r31, 0xFE	; 254
     e10:	80 81       	ld	r24, Z
     e12:	80 93 27 01 	sts	0x0127, r24	; 0x800127 <segment_data+0x4>
      segment_data[3] = hex_to_7seg[0];// 0xFF;
     e16:	80 91 07 01 	lds	r24, 0x0107	; 0x800107 <hex_to_7seg>
     e1a:	80 93 26 01 	sts	0x0126, r24	; 0x800126 <segment_data+0x3>
      segment_data[1] = hex_to_7seg[0];//0xFF;
     e1e:	80 93 24 01 	sts	0x0124, r24	; 0x800124 <segment_data+0x1>
      segment_data[0] = hex_to_7seg[0];//0xFF;
     e22:	80 93 23 01 	sts	0x0123, r24	; 0x800123 <segment_data>
      break;
     e26:	e5 cf       	rjmp	.-54     	; 0xdf2 <segsum+0x2c>
      segment_data[3] = hex_to_7seg[(sum / DecHex)];
      segment_data[1] = hex_to_7seg[0];//0xFF;
      segment_data[0] = hex_to_7seg[0];// 0xFF;
      break;
    case 3:
      segment_data[4] = hex_to_7seg[sum % DecHex];
     e28:	c8 01       	movw	r24, r16
     e2a:	bf 01       	movw	r22, r30
     e2c:	0e 94 8e 10 	call	0x211c	; 0x211c <__udivmodhi4>
     e30:	dc 01       	movw	r26, r24
     e32:	a9 5f       	subi	r26, 0xF9	; 249
     e34:	be 4f       	sbci	r27, 0xFE	; 254
     e36:	8c 91       	ld	r24, X
     e38:	80 93 27 01 	sts	0x0127, r24	; 0x800127 <segment_data+0x4>
      segment_data[3] = hex_to_7seg[(sum/DecHex)%DecHex];
     e3c:	cb 01       	movw	r24, r22
     e3e:	bf 01       	movw	r22, r30
     e40:	0e 94 8e 10 	call	0x211c	; 0x211c <__udivmodhi4>
     e44:	fc 01       	movw	r30, r24
     e46:	e9 5f       	subi	r30, 0xF9	; 249
     e48:	fe 4f       	sbci	r31, 0xFE	; 254
     e4a:	80 81       	ld	r24, Z
     e4c:	80 93 26 01 	sts	0x0126, r24	; 0x800126 <segment_data+0x3>
      segment_data[1] = hex_to_7seg[(sum/(DecHex*DecHex))];
     e50:	33 9f       	mul	r19, r19
     e52:	b0 01       	movw	r22, r0
     e54:	11 24       	eor	r1, r1
     e56:	c8 01       	movw	r24, r16
     e58:	0e 94 8e 10 	call	0x211c	; 0x211c <__udivmodhi4>
     e5c:	fb 01       	movw	r30, r22
     e5e:	e9 5f       	subi	r30, 0xF9	; 249
     e60:	fe 4f       	sbci	r31, 0xFE	; 254
     e62:	80 81       	ld	r24, Z
     e64:	80 93 24 01 	sts	0x0124, r24	; 0x800124 <segment_data+0x1>
      segment_data[0] = hex_to_7seg[0];//0xFF;
     e68:	80 91 07 01 	lds	r24, 0x0107	; 0x800107 <hex_to_7seg>
     e6c:	80 93 23 01 	sts	0x0123, r24	; 0x800123 <segment_data>
      segment_data[1] = hex_to_7seg[(sum/(DecHex*DecHex))%DecHex];
      segment_data[0] = hex_to_7seg[sum/(DecHex*DecHex*DecHex)];
    default:
      break;
  }
}
     e70:	df 91       	pop	r29
     e72:	cf 91       	pop	r28
     e74:	1f 91       	pop	r17
     e76:	0f 91       	pop	r16
     e78:	08 95       	ret
      segment_data[3] = hex_to_7seg[0];// 0xFF;
      segment_data[1] = hex_to_7seg[0];//0xFF;
      segment_data[0] = hex_to_7seg[0];//0xFF;
      break;
    case 2:
      segment_data[4] = hex_to_7seg[(sum % DecHex)];
     e7a:	c8 01       	movw	r24, r16
     e7c:	bf 01       	movw	r22, r30
     e7e:	0e 94 8e 10 	call	0x211c	; 0x211c <__udivmodhi4>
     e82:	fc 01       	movw	r30, r24
     e84:	e9 5f       	subi	r30, 0xF9	; 249
     e86:	fe 4f       	sbci	r31, 0xFE	; 254
     e88:	80 81       	ld	r24, Z
     e8a:	80 93 27 01 	sts	0x0127, r24	; 0x800127 <segment_data+0x4>
      segment_data[3] = hex_to_7seg[(sum / DecHex)];
     e8e:	fb 01       	movw	r30, r22
     e90:	e9 5f       	subi	r30, 0xF9	; 249
     e92:	fe 4f       	sbci	r31, 0xFE	; 254
     e94:	80 81       	ld	r24, Z
     e96:	80 93 26 01 	sts	0x0126, r24	; 0x800126 <segment_data+0x3>
      segment_data[1] = hex_to_7seg[0];//0xFF;
     e9a:	80 91 07 01 	lds	r24, 0x0107	; 0x800107 <hex_to_7seg>
     e9e:	80 93 24 01 	sts	0x0124, r24	; 0x800124 <segment_data+0x1>
      segment_data[0] = hex_to_7seg[0];// 0xFF;
     ea2:	80 93 23 01 	sts	0x0123, r24	; 0x800123 <segment_data>
      segment_data[1] = hex_to_7seg[(sum/(DecHex*DecHex))%DecHex];
      segment_data[0] = hex_to_7seg[sum/(DecHex*DecHex*DecHex)];
    default:
      break;
  }
}
     ea6:	df 91       	pop	r29
     ea8:	cf 91       	pop	r28
     eaa:	1f 91       	pop	r17
     eac:	0f 91       	pop	r16
     eae:	08 95       	ret
      segment_data[3] = hex_to_7seg[(sum/DecHex)%DecHex];
      segment_data[1] = hex_to_7seg[(sum/(DecHex*DecHex))];
      segment_data[0] = hex_to_7seg[0];//0xFF;
      break;
    case 4:
      segment_data[4] = hex_to_7seg[sum % DecHex];
     eb0:	c8 01       	movw	r24, r16
     eb2:	bf 01       	movw	r22, r30
     eb4:	0e 94 8e 10 	call	0x211c	; 0x211c <__udivmodhi4>
     eb8:	dc 01       	movw	r26, r24
     eba:	a9 5f       	subi	r26, 0xF9	; 249
     ebc:	be 4f       	sbci	r27, 0xFE	; 254
     ebe:	8c 91       	ld	r24, X
     ec0:	80 93 27 01 	sts	0x0127, r24	; 0x800127 <segment_data+0x4>
      segment_data[3] = hex_to_7seg[(sum/DecHex)%DecHex];
     ec4:	cb 01       	movw	r24, r22
     ec6:	bf 01       	movw	r22, r30
     ec8:	0e 94 8e 10 	call	0x211c	; 0x211c <__udivmodhi4>
     ecc:	dc 01       	movw	r26, r24
     ece:	a9 5f       	subi	r26, 0xF9	; 249
     ed0:	be 4f       	sbci	r27, 0xFE	; 254
     ed2:	8c 91       	ld	r24, X
     ed4:	80 93 26 01 	sts	0x0126, r24	; 0x800126 <segment_data+0x3>
      segment_data[1] = hex_to_7seg[(sum/(DecHex*DecHex))%DecHex];
     ed8:	33 9f       	mul	r19, r19
     eda:	90 01       	movw	r18, r0
     edc:	11 24       	eor	r1, r1
     ede:	c8 01       	movw	r24, r16
     ee0:	b9 01       	movw	r22, r18
     ee2:	0e 94 8e 10 	call	0x211c	; 0x211c <__udivmodhi4>
     ee6:	cb 01       	movw	r24, r22
     ee8:	bf 01       	movw	r22, r30
     eea:	0e 94 8e 10 	call	0x211c	; 0x211c <__udivmodhi4>
     eee:	dc 01       	movw	r26, r24
     ef0:	a9 5f       	subi	r26, 0xF9	; 249
     ef2:	be 4f       	sbci	r27, 0xFE	; 254
     ef4:	8c 91       	ld	r24, X
     ef6:	80 93 24 01 	sts	0x0124, r24	; 0x800124 <segment_data+0x1>
      segment_data[0] = hex_to_7seg[sum/(DecHex*DecHex*DecHex)];
     efa:	e2 9f       	mul	r30, r18
     efc:	b0 01       	movw	r22, r0
     efe:	e3 9f       	mul	r30, r19
     f00:	70 0d       	add	r23, r0
     f02:	f2 9f       	mul	r31, r18
     f04:	70 0d       	add	r23, r0
     f06:	11 24       	eor	r1, r1
     f08:	c8 01       	movw	r24, r16
     f0a:	0e 94 8e 10 	call	0x211c	; 0x211c <__udivmodhi4>
     f0e:	fb 01       	movw	r30, r22
     f10:	e9 5f       	subi	r30, 0xF9	; 249
     f12:	fe 4f       	sbci	r31, 0xFE	; 254
     f14:	80 81       	ld	r24, Z
     f16:	80 93 23 01 	sts	0x0123, r24	; 0x800123 <segment_data>
    default:
      break;
  }
}
     f1a:	df 91       	pop	r29
     f1c:	cf 91       	pop	r28
     f1e:	1f 91       	pop	r17
     f20:	0f 91       	pop	r16
     f22:	08 95       	ret

00000f24 <displaySwitch>:
// Takes the segment_data[] array that has the #_DIGIT values and displays it to the 
// current LED digit (displayValue) and returns the next value that will be used for displaying
//***********************************************************************************
uint8_t displaySwitch(uint8_t displayValue)
{
  switch(displayValue){
     f24:	82 30       	cpi	r24, 0x02	; 2
     f26:	c9 f1       	breq	.+114    	; 0xf9a <displaySwitch+0x76>
     f28:	88 f4       	brcc	.+34     	; 0xf4c <displaySwitch+0x28>
     f2a:	88 23       	and	r24, r24
     f2c:	81 f1       	breq	.+96     	; 0xf8e <displaySwitch+0x6a>
     f2e:	81 30       	cpi	r24, 0x01	; 1
     f30:	f1 f4       	brne	.+60     	; 0xf6e <displaySwitch+0x4a>
    case 0:
      PORTB = 0x07;
      PORTA = segment_data[4];
      break;
    case 1:
      PORTB = 0x17;
     f32:	97 e1       	ldi	r25, 0x17	; 23
     f34:	98 bb       	out	0x18, r25	; 24
      PORTA = segment_data[3];
     f36:	90 91 26 01 	lds	r25, 0x0126	; 0x800126 <segment_data+0x3>
     f3a:	9b bb       	out	0x1b, r25	; 27
	#else
		//round up by default
		__ticks_dc = (uint32_t)(ceil(fabs(__tmp)));
	#endif

	__builtin_avr_delay_cycles(__ticks_dc);
     f3c:	ef e9       	ldi	r30, 0x9F	; 159
     f3e:	ff e0       	ldi	r31, 0x0F	; 15
     f40:	31 97       	sbiw	r30, 0x01	; 1
     f42:	f1 f7       	brne	.-4      	; 0xf40 <displaySwitch+0x1c>
     f44:	00 c0       	rjmp	.+0      	; 0xf46 <displaySwitch+0x22>
     f46:	00 00       	nop
    default:
      break;
  } 
  _delay_ms(1);				//Adds delay for screen congruency
  if(displayValue == 4) return 0; 	//Starts display back to 0
  return ++displayValue; 
     f48:	8f 5f       	subi	r24, 0xFF	; 255
     f4a:	08 95       	ret
// Takes the segment_data[] array that has the #_DIGIT values and displays it to the 
// current LED digit (displayValue) and returns the next value that will be used for displaying
//***********************************************************************************
uint8_t displaySwitch(uint8_t displayValue)
{
  switch(displayValue){
     f4c:	83 30       	cpi	r24, 0x03	; 3
     f4e:	c9 f0       	breq	.+50     	; 0xf82 <displaySwitch+0x5e>
     f50:	84 30       	cpi	r24, 0x04	; 4
     f52:	69 f4       	brne	.+26     	; 0xf6e <displaySwitch+0x4a>
    case 3:
      PORTB = 0x37;
      PORTA = segment_data[1];
      break;
    case 4:
      PORTB = 0x47;
     f54:	87 e4       	ldi	r24, 0x47	; 71
     f56:	88 bb       	out	0x18, r24	; 24
      PORTA = segment_data[0];
     f58:	80 91 23 01 	lds	r24, 0x0123	; 0x800123 <segment_data>
     f5c:	8b bb       	out	0x1b, r24	; 27
     f5e:	8f e9       	ldi	r24, 0x9F	; 159
     f60:	9f e0       	ldi	r25, 0x0F	; 15
     f62:	01 97       	sbiw	r24, 0x01	; 1
     f64:	f1 f7       	brne	.-4      	; 0xf62 <displaySwitch+0x3e>
     f66:	00 c0       	rjmp	.+0      	; 0xf68 <displaySwitch+0x44>
     f68:	00 00       	nop
      break;
    default:
      break;
  } 
  _delay_ms(1);				//Adds delay for screen congruency
  if(displayValue == 4) return 0; 	//Starts display back to 0
     f6a:	80 e0       	ldi	r24, 0x00	; 0
     f6c:	08 95       	ret
     f6e:	ef e9       	ldi	r30, 0x9F	; 159
     f70:	ff e0       	ldi	r31, 0x0F	; 15
     f72:	31 97       	sbiw	r30, 0x01	; 1
     f74:	f1 f7       	brne	.-4      	; 0xf72 <displaySwitch+0x4e>
     f76:	00 c0       	rjmp	.+0      	; 0xf78 <displaySwitch+0x54>
     f78:	00 00       	nop
     f7a:	84 30       	cpi	r24, 0x04	; 4
     f7c:	29 f7       	brne	.-54     	; 0xf48 <displaySwitch+0x24>
     f7e:	80 e0       	ldi	r24, 0x00	; 0
     f80:	08 95       	ret
    case 2:
      PORTB = 0x27;
      PORTA = segment_data[2];
      break;
    case 3:
      PORTB = 0x37;
     f82:	97 e3       	ldi	r25, 0x37	; 55
     f84:	98 bb       	out	0x18, r25	; 24
      PORTA = segment_data[1];
     f86:	90 91 24 01 	lds	r25, 0x0124	; 0x800124 <segment_data+0x1>
     f8a:	9b bb       	out	0x1b, r25	; 27
      break;
     f8c:	d7 cf       	rjmp	.-82     	; 0xf3c <displaySwitch+0x18>
//***********************************************************************************
uint8_t displaySwitch(uint8_t displayValue)
{
  switch(displayValue){
    case 0:
      PORTB = 0x07;
     f8e:	97 e0       	ldi	r25, 0x07	; 7
     f90:	98 bb       	out	0x18, r25	; 24
      PORTA = segment_data[4];
     f92:	90 91 27 01 	lds	r25, 0x0127	; 0x800127 <segment_data+0x4>
     f96:	9b bb       	out	0x1b, r25	; 27
      break;
     f98:	d1 cf       	rjmp	.-94     	; 0xf3c <displaySwitch+0x18>
    case 1:
      PORTB = 0x17;
      PORTA = segment_data[3];
      break;
    case 2:
      PORTB = 0x27;
     f9a:	97 e2       	ldi	r25, 0x27	; 39
     f9c:	98 bb       	out	0x18, r25	; 24
      PORTA = segment_data[2];
     f9e:	90 91 25 01 	lds	r25, 0x0125	; 0x800125 <segment_data+0x2>
     fa2:	9b bb       	out	0x1b, r25	; 27
      break;
     fa4:	cb cf       	rjmp	.-106    	; 0xf3c <displaySwitch+0x18>

00000fa6 <ButtonCheck>:
// Takes in the current value outputted and returns the adjusted value based on the number
//***********************************************************************************
uint8_t ButtonCheck(uint8_t buttonMode)
{
  //PORTA to input w/ pullups 
  DDRA  = 0x00;	
     fa6:	1a ba       	out	0x1a, r1	; 26
  PORTA = 0xFF;
     fa8:	9f ef       	ldi	r25, 0xFF	; 255
     faa:	9b bb       	out	0x1b, r25	; 27
  //enable tristate buffer for pushbutton switches via DEC7 on the encoder
  PORTB = 0x70; 
     fac:	90 e7       	ldi	r25, 0x70	; 112
     fae:	98 bb       	out	0x18, r25	; 24
	#else
		//round up by default
		__ticks_dc = (uint32_t)(ceil(fabs(__tmp)));
	#endif

	__builtin_avr_delay_cycles(__ticks_dc);
     fb0:	95 e3       	ldi	r25, 0x35	; 53
     fb2:	9a 95       	dec	r25
     fb4:	f1 f7       	brne	.-4      	; 0xfb2 <ButtonCheck+0xc>
     fb6:	00 00       	nop
     fb8:	e5 e3       	ldi	r30, 0x35	; 53
     fba:	f1 e0       	ldi	r31, 0x01	; 1
     fbc:	60 e0       	ldi	r22, 0x00	; 0
     fbe:	70 e0       	ldi	r23, 0x00	; 0
  _delay_us(10);		//BUG"Added delay to get first button to work, need better fix
  while(buttonLoop < 8)
  {     
    if(chk_buttons(buttonLoop))
    {
      buttonMode ^= (1<<buttonLoop); 
     fc0:	a1 e0       	ldi	r26, 0x01	; 1
     fc2:	b0 e0       	ldi	r27, 0x00	; 0
// Edited to have a state array of size 8 for each button
//******************************************************************************
uint8_t chk_buttons(uint8_t buttons) {
  //Gansels debounce with the state as an array that is used to check against the values that buttons is at
  static uint16_t state[8] = {0}; //holds present state
  state[buttons] = (state[buttons] << 1) | (! bit_is_clear(PINA, buttons)) | 0xE000;
     fc4:	99 b3       	in	r25, 0x19	; 25
     fc6:	20 81       	ld	r18, Z
     fc8:	31 81       	ldd	r19, Z+1	; 0x01
     fca:	22 0f       	add	r18, r18
     fcc:	33 1f       	adc	r19, r19
     fce:	a9 01       	movw	r20, r18
     fd0:	50 6e       	ori	r21, 0xE0	; 224
     fd2:	29 2f       	mov	r18, r25
     fd4:	30 e0       	ldi	r19, 0x00	; 0
     fd6:	06 2e       	mov	r0, r22
     fd8:	02 c0       	rjmp	.+4      	; 0xfde <ButtonCheck+0x38>
     fda:	35 95       	asr	r19
     fdc:	27 95       	ror	r18
     fde:	0a 94       	dec	r0
     fe0:	e2 f7       	brpl	.-8      	; 0xfda <ButtonCheck+0x34>
     fe2:	21 70       	andi	r18, 0x01	; 1
     fe4:	33 27       	eor	r19, r19
     fe6:	24 2b       	or	r18, r20
     fe8:	35 2b       	or	r19, r21
     fea:	21 93       	st	Z+, r18
     fec:	31 93       	st	Z+, r19
  if (state[buttons] == 0xF000) return 1;
     fee:	21 15       	cp	r18, r1
     ff0:	30 4f       	sbci	r19, 0xF0	; 240
     ff2:	39 f4       	brne	.+14     	; 0x1002 <ButtonCheck+0x5c>
  _delay_us(10);		//BUG"Added delay to get first button to work, need better fix
  while(buttonLoop < 8)
  {     
    if(chk_buttons(buttonLoop))
    {
      buttonMode ^= (1<<buttonLoop); 
     ff4:	9d 01       	movw	r18, r26
     ff6:	06 2e       	mov	r0, r22
     ff8:	01 c0       	rjmp	.+2      	; 0xffc <ButtonCheck+0x56>
     ffa:	22 0f       	add	r18, r18
     ffc:	0a 94       	dec	r0
     ffe:	ea f7       	brpl	.-6      	; 0xffa <ButtonCheck+0x54>
    1000:	82 27       	eor	r24, r18
    1002:	6f 5f       	subi	r22, 0xFF	; 255
    1004:	7f 4f       	sbci	r23, 0xFF	; 255
  PORTA = 0xFF;
  //enable tristate buffer for pushbutton switches via DEC7 on the encoder
  PORTB = 0x70; 
  uint8_t buttonLoop = 0;
  _delay_us(10);		//BUG"Added delay to get first button to work, need better fix
  while(buttonLoop < 8)
    1006:	68 30       	cpi	r22, 0x08	; 8
    1008:	71 05       	cpc	r23, r1
    100a:	e1 f6       	brne	.-72     	; 0xfc4 <ButtonCheck+0x1e>
    {
      buttonMode ^= (1<<buttonLoop); 
    }
    buttonLoop++;
  }
  DDRA = 0xFF;
    100c:	9f ef       	ldi	r25, 0xFF	; 255
    100e:	9a bb       	out	0x1a, r25	; 26
  return buttonMode;
    1010:	08 95       	ret

00001012 <ClockCounterCorrection>:
//                     ClockCounterCorrection(uint16_t displayValue)                                    
// Takes in a value and ensures it is in the format a clock would use
// Returns value in the format HH:MM 
//***********************************************************************************
uint16_t ClockCounterCorrection(uint16_t displayValue)
{
    1012:	48 2f       	mov	r20, r24
  static uint8_t displayValueHours;
  static uint8_t displayValueMins;
  
  displayValueHours = (displayValue / 60);
    1014:	28 2f       	mov	r18, r24
    1016:	39 2f       	mov	r19, r25
    1018:	a9 e8       	ldi	r26, 0x89	; 137
    101a:	b8 e8       	ldi	r27, 0x88	; 136
    101c:	0e 94 de 10 	call	0x21bc	; 0x21bc <__umulhisi3>
    1020:	9c 01       	movw	r18, r24
    1022:	36 95       	lsr	r19
    1024:	27 95       	ror	r18
    1026:	32 95       	swap	r19
    1028:	22 95       	swap	r18
    102a:	2f 70       	andi	r18, 0x0F	; 15
    102c:	23 27       	eor	r18, r19
    102e:	3f 70       	andi	r19, 0x0F	; 15
    1030:	23 27       	eor	r18, r19
  displayValueMins  = (displayValue - (60 * displayValueHours));
  displayValue      = ((displayValueHours * 100) + displayValueMins);
    1032:	8c e3       	ldi	r24, 0x3C	; 60
    1034:	28 9f       	mul	r18, r24
    1036:	40 19       	sub	r20, r0
    1038:	11 24       	eor	r1, r1
    103a:	84 2f       	mov	r24, r20
    103c:	90 e0       	ldi	r25, 0x00	; 0
  
  return displayValue;
}
    103e:	44 e6       	ldi	r20, 0x64	; 100
    1040:	24 9f       	mul	r18, r20
    1042:	80 0d       	add	r24, r0
    1044:	91 1d       	adc	r25, r1
    1046:	11 24       	eor	r1, r1
    1048:	08 95       	ret

0000104a <EncoderValueDirection>:
  //First If statment checks   0B000000__ 
  //Second If statment checks  0B0000__00 
  
  static uint8_t previousEncoderValue = 0x0F;

  if((previousEncoderValue & 0x03) == 0x00 && (currentEncoderValue & 0x03) == 0x01)
    104a:	90 91 04 01 	lds	r25, 0x0104	; 0x800104 <previousEncoderValue.2341>
    104e:	29 2f       	mov	r18, r25
    1050:	23 70       	andi	r18, 0x03	; 3
    1052:	71 f4       	brne	.+28     	; 0x1070 <EncoderValueDirection+0x26>
    1054:	28 2f       	mov	r18, r24
    1056:	23 70       	andi	r18, 0x03	; 3
    1058:	21 30       	cpi	r18, 0x01	; 1
    105a:	e9 f0       	breq	.+58     	; 0x1096 <EncoderValueDirection+0x4c>
    105c:	9c 70       	andi	r25, 0x0C	; 12
    previousEncoderValue = (currentEncoderValue & 0x0F);
    return CCW;   
  }
  
  //Checks the second Encoder
  if((previousEncoderValue & 0x0C) == 0x00 && (currentEncoderValue & 0x0C) == 0x04)
    105e:	91 f4       	brne	.+36     	; 0x1084 <EncoderValueDirection+0x3a>
    1060:	98 2f       	mov	r25, r24
    1062:	9c 70       	andi	r25, 0x0C	; 12
    1064:	94 30       	cpi	r25, 0x04	; 4
    1066:	b9 f0       	breq	.+46     	; 0x1096 <EncoderValueDirection+0x4c>
  else if((previousEncoderValue & 0x0C) == 0x04 && (currentEncoderValue & 0x0C) == 0x00)
  {
    previousEncoderValue = (currentEncoderValue & 0x0F);
    return CCW;   
  }
  previousEncoderValue = currentEncoderValue;
    1068:	80 93 04 01 	sts	0x0104, r24	; 0x800104 <previousEncoderValue.2341>
  return 0;
    106c:	80 e0       	ldi	r24, 0x00	; 0
}
    106e:	08 95       	ret
  if((previousEncoderValue & 0x03) == 0x00 && (currentEncoderValue & 0x03) == 0x01)
  {
    previousEncoderValue = (currentEncoderValue & 0x0F);
    return CW;
  }
  else if((previousEncoderValue & 0x03) == 0x01 && (currentEncoderValue & 0x03) == 0x00)
    1070:	21 30       	cpi	r18, 0x01	; 1
    1072:	a1 f7       	brne	.-24     	; 0x105c <EncoderValueDirection+0x12>
    1074:	28 2f       	mov	r18, r24
    1076:	23 70       	andi	r18, 0x03	; 3
    1078:	89 f7       	brne	.-30     	; 0x105c <EncoderValueDirection+0x12>
  {
    previousEncoderValue = (currentEncoderValue & 0x0F);
    107a:	8f 70       	andi	r24, 0x0F	; 15
    107c:	80 93 04 01 	sts	0x0104, r24	; 0x800104 <previousEncoderValue.2341>
    return CCW;   
    1080:	8f ef       	ldi	r24, 0xFF	; 255
    1082:	08 95       	ret
  if((previousEncoderValue & 0x0C) == 0x00 && (currentEncoderValue & 0x0C) == 0x04)
  {
    previousEncoderValue = (currentEncoderValue & 0x0F);
    return CW;
  }
  else if((previousEncoderValue & 0x0C) == 0x04 && (currentEncoderValue & 0x0C) == 0x00)
    1084:	94 30       	cpi	r25, 0x04	; 4
    1086:	81 f7       	brne	.-32     	; 0x1068 <EncoderValueDirection+0x1e>
    1088:	98 2f       	mov	r25, r24
    108a:	9c 70       	andi	r25, 0x0C	; 12
    108c:	b1 f3       	breq	.-20     	; 0x107a <EncoderValueDirection+0x30>
  {
    previousEncoderValue = (currentEncoderValue & 0x0F);
    return CCW;   
  }
  previousEncoderValue = currentEncoderValue;
    108e:	80 93 04 01 	sts	0x0104, r24	; 0x800104 <previousEncoderValue.2341>
  return 0;
    1092:	80 e0       	ldi	r24, 0x00	; 0
}
    1094:	08 95       	ret
  
  static uint8_t previousEncoderValue = 0x0F;

  if((previousEncoderValue & 0x03) == 0x00 && (currentEncoderValue & 0x03) == 0x01)
  {
    previousEncoderValue = (currentEncoderValue & 0x0F);
    1096:	8f 70       	andi	r24, 0x0F	; 15
    1098:	80 93 04 01 	sts	0x0104, r24	; 0x800104 <previousEncoderValue.2341>
    return CW;
    109c:	81 e0       	ldi	r24, 0x01	; 1
    109e:	08 95       	ret

000010a0 <__vector_16>:
// Toggles COLON bits
// Counts Seconds, rolls over every 60, increments and rolls clock over 
// Counts up too 255 (which inidcates 1 sec with 32Khz clk & 128 prescale)
//*********************************************************************************
ISR(TIMER0_OVF_vect)
{
    10a0:	1f 92       	push	r1
    10a2:	0f 92       	push	r0
    10a4:	0f b6       	in	r0, 0x3f	; 63
    10a6:	0f 92       	push	r0
    10a8:	11 24       	eor	r1, r1
    10aa:	2f 93       	push	r18
    10ac:	3f 93       	push	r19
    10ae:	8f 93       	push	r24
    10b0:	9f 93       	push	r25
  uint16_t ms = 0;	
  static uint8_t currentSeconds = 0;
  static uint8_t snoozeTimer = 0;
  segment_data[2] ^= 0x03;   
    10b2:	20 91 25 01 	lds	r18, 0x0125	; 0x800125 <segment_data+0x2>
    10b6:	83 e0       	ldi	r24, 0x03	; 3
    10b8:	82 27       	eor	r24, r18
    10ba:	80 93 25 01 	sts	0x0125, r24	; 0x800125 <segment_data+0x2>
  if(currentSeconds < 60)
    10be:	80 91 34 01 	lds	r24, 0x0134	; 0x800134 <currentSeconds.2348>
    10c2:	8c 33       	cpi	r24, 0x3C	; 60
    10c4:	a0 f4       	brcc	.+40     	; 0x10ee <__vector_16+0x4e>
  {
    if(snoozeFlag == SNOOZEON)
    10c6:	90 91 30 01 	lds	r25, 0x0130	; 0x800130 <snoozeFlag>
    10ca:	91 30       	cpi	r25, 0x01	; 1
    10cc:	29 f1       	breq	.+74     	; 0x1118 <__stack+0x19>
    10ce:	90 91 33 01 	lds	r25, 0x0133	; 0x800133 <snoozeTimer.2349>
    {
      snoozeTimer++;
      segment_data[2] ^= 0x04;
    }
    currentSeconds++;
    10d2:	8f 5f       	subi	r24, 0xFF	; 255
    10d4:	80 93 34 01 	sts	0x0134, r24	; 0x800134 <currentSeconds.2348>
  {
    currentTime++;
    currentSeconds = 0;
  }

  if(snoozeTimer == 10)
    10d8:	9a 30       	cpi	r25, 0x0A	; 10
    10da:	c1 f0       	breq	.+48     	; 0x110c <__stack+0xd>
  ms++;
  if(ms % 8 == 0) {
    //for note duration (64th notes) 
    beat++;
  }
}
    10dc:	9f 91       	pop	r25
    10de:	8f 91       	pop	r24
    10e0:	3f 91       	pop	r19
    10e2:	2f 91       	pop	r18
    10e4:	0f 90       	pop	r0
    10e6:	0f be       	out	0x3f, r0	; 63
    10e8:	0f 90       	pop	r0
    10ea:	1f 90       	pop	r1
    10ec:	18 95       	reti
      segment_data[2] ^= 0x04;
    }
    currentSeconds++;
  }else
  {
    currentTime++;
    10ee:	80 91 2e 01 	lds	r24, 0x012E	; 0x80012e <__data_end>
    10f2:	90 91 2f 01 	lds	r25, 0x012F	; 0x80012f <__data_end+0x1>
    10f6:	01 96       	adiw	r24, 0x01	; 1
    10f8:	90 93 2f 01 	sts	0x012F, r25	; 0x80012f <__data_end+0x1>
    10fc:	80 93 2e 01 	sts	0x012E, r24	; 0x80012e <__data_end>
    currentSeconds = 0;
    1100:	10 92 34 01 	sts	0x0134, r1	; 0x800134 <currentSeconds.2348>
    1104:	90 91 33 01 	lds	r25, 0x0133	; 0x800133 <snoozeTimer.2349>
  }

  if(snoozeTimer == 10)
    1108:	9a 30       	cpi	r25, 0x0A	; 10
    110a:	41 f7       	brne	.-48     	; 0x10dc <__vector_16+0x3c>
  {
    snoozeFlag = SNOOZEALARM;
    110c:	82 e0       	ldi	r24, 0x02	; 2
    110e:	80 93 30 01 	sts	0x0130, r24	; 0x800130 <snoozeFlag>
    snoozeTimer = 0;
    1112:	10 92 33 01 	sts	0x0133, r1	; 0x800133 <snoozeTimer.2349>
  ms++;
  if(ms % 8 == 0) {
    //for note duration (64th notes) 
    beat++;
  }
}
    1116:	e2 cf       	rjmp	.-60     	; 0x10dc <__vector_16+0x3c>
  segment_data[2] ^= 0x03;   
  if(currentSeconds < 60)
  {
    if(snoozeFlag == SNOOZEON)
    {
      snoozeTimer++;
    1118:	90 91 33 01 	lds	r25, 0x0133	; 0x800133 <snoozeTimer.2349>
    111c:	9f 5f       	subi	r25, 0xFF	; 255
    111e:	90 93 33 01 	sts	0x0133, r25	; 0x800133 <snoozeTimer.2349>
      segment_data[2] ^= 0x04;
    1122:	37 e0       	ldi	r19, 0x07	; 7
    1124:	23 27       	eor	r18, r19
    1126:	20 93 25 01 	sts	0x0125, r18	; 0x800125 <segment_data+0x2>
    112a:	d3 cf       	rjmp	.-90     	; 0x10d2 <__vector_16+0x32>

0000112c <__vector_12>:
//                                   ISR(TIMER1_OVF_vect)                                    
// Triggered when TimerCounter1 overflows
//
//*********************************************************************************
ISR(TIMER1_COMPA_vect)
{   PORTD ^= 0b10000000;      //flips the bit, creating a tone
    112c:	1f 92       	push	r1
    112e:	0f 92       	push	r0
    1130:	0f b6       	in	r0, 0x3f	; 63
    1132:	0f 92       	push	r0
    1134:	11 24       	eor	r1, r1
    1136:	0b b6       	in	r0, 0x3b	; 59
    1138:	0f 92       	push	r0
    113a:	2f 93       	push	r18
    113c:	3f 93       	push	r19
    113e:	4f 93       	push	r20
    1140:	5f 93       	push	r21
    1142:	6f 93       	push	r22
    1144:	7f 93       	push	r23
    1146:	8f 93       	push	r24
    1148:	9f 93       	push	r25
    114a:	af 93       	push	r26
    114c:	bf 93       	push	r27
    114e:	ef 93       	push	r30
    1150:	ff 93       	push	r31
    1152:	82 b3       	in	r24, 0x12	; 18
    1154:	80 58       	subi	r24, 0x80	; 128
    1156:	82 bb       	out	0x12, r24	; 18
  if(beat >= max_beat) {   //if we've played the note long enough
    1158:	20 91 4b 01 	lds	r18, 0x014B	; 0x80014b <beat>
    115c:	30 91 4c 01 	lds	r19, 0x014C	; 0x80014c <beat+0x1>
    1160:	80 91 49 01 	lds	r24, 0x0149	; 0x800149 <max_beat>
    1164:	90 91 4a 01 	lds	r25, 0x014A	; 0x80014a <max_beat+0x1>
    1168:	28 17       	cp	r18, r24
    116a:	39 07       	cpc	r19, r25
    116c:	58 f0       	brcs	.+22     	; 0x1184 <__vector_12+0x58>
    notes++;               //move on to the next note
    116e:	80 91 47 01 	lds	r24, 0x0147	; 0x800147 <notes>
    1172:	8f 5f       	subi	r24, 0xFF	; 255
    1174:	80 93 47 01 	sts	0x0147, r24	; 0x800147 <notes>
    play_song(song, notes);//and play it
    1178:	60 91 47 01 	lds	r22, 0x0147	; 0x800147 <notes>
    117c:	80 91 48 01 	lds	r24, 0x0148	; 0x800148 <song>
    1180:	0e 94 a9 06 	call	0xd52	; 0xd52 <play_song>
  }
}
    1184:	ff 91       	pop	r31
    1186:	ef 91       	pop	r30
    1188:	bf 91       	pop	r27
    118a:	af 91       	pop	r26
    118c:	9f 91       	pop	r25
    118e:	8f 91       	pop	r24
    1190:	7f 91       	pop	r23
    1192:	6f 91       	pop	r22
    1194:	5f 91       	pop	r21
    1196:	4f 91       	pop	r20
    1198:	3f 91       	pop	r19
    119a:	2f 91       	pop	r18
    119c:	0f 90       	pop	r0
    119e:	0b be       	out	0x3b, r0	; 59
    11a0:	0f 90       	pop	r0
    11a2:	0f be       	out	0x3f, r0	; 63
    11a4:	0f 90       	pop	r0
    11a6:	1f 90       	pop	r1
    11a8:	18 95       	reti

000011aa <AlarmSetMode>:
// Function entered when the user presses the first button on the button board
// loops until user to inputs time (w/ encoder)
// Once user presses same button, Alarm is set and function is exitted// 
//*********************************************************************************
uint16_t AlarmSetMode(uint8_t alarmOffset)
{
    11aa:	cf 93       	push	r28
    11ac:	c8 2f       	mov	r28, r24
/*********************************************************************/
//              SPI_read(uint8_t currentBarGraph)
// Sends the bar graph data and then reads the SPI port.
/*********************************************************************/
uint16_t SPI_read(uint8_t currentBarGraph){
  PORTB &= 0x7F;
    11ae:	c7 98       	cbi	0x18, 7	; 24
  SPDR = currentBarGraph;
    11b0:	1f b8       	out	0x0f, r1	; 15
  while (bit_is_clear(SPSR,SPIF)){} //wait till 8 bits have been sent
    11b2:	77 9b       	sbis	0x0e, 7	; 14
    11b4:	fe cf       	rjmp	.-4      	; 0x11b2 <AlarmSetMode+0x8>
  //PORTD = 0xFF;
  //PORTD = 0x00;
  PORTE = 0x00;
    11b6:	13 b8       	out	0x03, r1	; 3
  PORTE = 0xFF;
    11b8:	8f ef       	ldi	r24, 0xFF	; 255
    11ba:	83 b9       	out	0x03, r24	; 3
  return(SPDR); //return incoming data from SPDR
    11bc:	8f b1       	in	r24, 0x0f	; 15
  static uint8_t  currentEncoderValue  = 0;
  static uint16_t encodersDisplayValue  = 0;
  int8_t currentAdjustmentValue = 0;
  static uint16_t  offsetVal = 1439;
  currentEncoderValue = (SPI_read(currentAdjustmentValue));  
  currentAdjustmentValue = EncoderValueDirection(currentEncoderValue);
    11be:	0e 94 25 08 	call	0x104a	; 0x104a <EncoderValueDirection>
    11c2:	48 2f       	mov	r20, r24
  encodersDisplayValue += currentAdjustmentValue;
    11c4:	20 91 31 01 	lds	r18, 0x0131	; 0x800131 <encodersDisplayValue.2359>
    11c8:	30 91 32 01 	lds	r19, 0x0132	; 0x800132 <encodersDisplayValue.2359+0x1>
    11cc:	c9 01       	movw	r24, r18
    11ce:	84 0f       	add	r24, r20
    11d0:	91 1d       	adc	r25, r1
    11d2:	47 fd       	sbrc	r20, 7
    11d4:	9a 95       	dec	r25
    11d6:	90 93 32 01 	sts	0x0132, r25	; 0x800132 <encodersDisplayValue.2359+0x1>
    11da:	80 93 31 01 	sts	0x0131, r24	; 0x800131 <encodersDisplayValue.2359>
  // Checks if the clock will roll backwards behind 0
  // 1439 is clock time for 23 : 59
  if(!alarmOffset)
    11de:	c1 11       	cpse	r28, r1
    11e0:	1b c0       	rjmp	.+54     	; 0x1218 <AlarmSetMode+0x6e>
  {
    offsetVal = 1439;
    11e2:	2f e9       	ldi	r18, 0x9F	; 159
    11e4:	35 e0       	ldi	r19, 0x05	; 5
    11e6:	30 93 03 01 	sts	0x0103, r19	; 0x800103 <offsetVal.2361+0x1>
    11ea:	20 93 02 01 	sts	0x0102, r18	; 0x800102 <offsetVal.2361>
  }else{
    offsetVal = 779;  
  }

  if((encodersDisplayValue == 0) && (currentAdjustmentValue == CCW)) 
    11ee:	00 97       	sbiw	r24, 0x00	; 0
    11f0:	21 f4       	brne	.+8      	; 0x11fa <AlarmSetMode+0x50>
    11f2:	4f 3f       	cpi	r20, 0xFF	; 255
    11f4:	c1 f0       	breq	.+48     	; 0x1226 <AlarmSetMode+0x7c>
  {
    if(!offsetVal){ encodersDisplayValue = 0;}
    else{encodersDisplayValue = 0;}//	    encodersDisplayValue = 60;}
  }
  return encodersDisplayValue;
}
    11f6:	cf 91       	pop	r28
    11f8:	08 95       	ret
  }

  if((encodersDisplayValue == 0) && (currentAdjustmentValue == CCW)) 
  {
    encodersDisplayValue = offsetVal;
  }else if(encodersDisplayValue > offsetVal)
    11fa:	20 91 02 01 	lds	r18, 0x0102	; 0x800102 <offsetVal.2361>
    11fe:	30 91 03 01 	lds	r19, 0x0103	; 0x800103 <offsetVal.2361+0x1>
    1202:	28 17       	cp	r18, r24
    1204:	39 07       	cpc	r19, r25
    1206:	b8 f7       	brcc	.-18     	; 0x11f6 <AlarmSetMode+0x4c>
  {
    if(!offsetVal){ encodersDisplayValue = 0;}
    1208:	10 92 32 01 	sts	0x0132, r1	; 0x800132 <encodersDisplayValue.2359+0x1>
    120c:	10 92 31 01 	sts	0x0131, r1	; 0x800131 <encodersDisplayValue.2359>
    1210:	80 e0       	ldi	r24, 0x00	; 0
    1212:	90 e0       	ldi	r25, 0x00	; 0
    else{encodersDisplayValue = 0;}//	    encodersDisplayValue = 60;}
  }
  return encodersDisplayValue;
}
    1214:	cf 91       	pop	r28
    1216:	08 95       	ret
  // 1439 is clock time for 23 : 59
  if(!alarmOffset)
  {
    offsetVal = 1439;
  }else{
    offsetVal = 779;  
    1218:	2b e0       	ldi	r18, 0x0B	; 11
    121a:	33 e0       	ldi	r19, 0x03	; 3
    121c:	30 93 03 01 	sts	0x0103, r19	; 0x800103 <offsetVal.2361+0x1>
    1220:	20 93 02 01 	sts	0x0102, r18	; 0x800102 <offsetVal.2361>
    1224:	e4 cf       	rjmp	.-56     	; 0x11ee <AlarmSetMode+0x44>
  }

  if((encodersDisplayValue == 0) && (currentAdjustmentValue == CCW)) 
  {
    encodersDisplayValue = offsetVal;
    1226:	80 91 02 01 	lds	r24, 0x0102	; 0x800102 <offsetVal.2361>
    122a:	90 91 03 01 	lds	r25, 0x0103	; 0x800103 <offsetVal.2361+0x1>
    122e:	90 93 32 01 	sts	0x0132, r25	; 0x800132 <encodersDisplayValue.2359+0x1>
    1232:	80 93 31 01 	sts	0x0131, r24	; 0x800131 <encodersDisplayValue.2359>
  {
    if(!offsetVal){ encodersDisplayValue = 0;}
    else{encodersDisplayValue = 0;}//	    encodersDisplayValue = 60;}
  }
  return encodersDisplayValue;
}
    1236:	cf 91       	pop	r28
    1238:	08 95       	ret

0000123a <VolumeSetMode>:
/*********************************************************************/
//              SPI_read(uint8_t currentBarGraph)
// Sends the bar graph data and then reads the SPI port.
/*********************************************************************/
uint16_t SPI_read(uint8_t currentBarGraph){
  PORTB &= 0x7F;
    123a:	c7 98       	cbi	0x18, 7	; 24
  SPDR = currentBarGraph;
    123c:	1f b8       	out	0x0f, r1	; 15
  while (bit_is_clear(SPSR,SPIF)){} //wait till 8 bits have been sent
    123e:	77 9b       	sbis	0x0e, 7	; 14
    1240:	fe cf       	rjmp	.-4      	; 0x123e <VolumeSetMode+0x4>
  //PORTD = 0xFF;
  //PORTD = 0x00;
  PORTE = 0x00;
    1242:	13 b8       	out	0x03, r1	; 3
  PORTE = 0xFF;
    1244:	8f ef       	ldi	r24, 0xFF	; 255
    1246:	83 b9       	out	0x03, r24	; 3
  return(SPDR); //return incoming data from SPDR
    1248:	8f b1       	in	r24, 0x0f	; 15
  static uint8_t  currentEncoderValue  = 0;
  static uint16_t encodersVolumeValue  = 0xE0;
  int8_t currentAdjustmentValue = 0;
  
  currentEncoderValue = (SPI_read(currentAdjustmentValue));  
  currentAdjustmentValue = EncoderValueDirection(currentEncoderValue);
    124a:	0e 94 25 08 	call	0x104a	; 0x104a <EncoderValueDirection>
    124e:	48 2f       	mov	r20, r24
  encodersVolumeValue += currentAdjustmentValue;
    1250:	20 91 00 01 	lds	r18, 0x0100	; 0x800100 <__data_start>
    1254:	30 91 01 01 	lds	r19, 0x0101	; 0x800101 <__data_start+0x1>
    1258:	c9 01       	movw	r24, r18
    125a:	84 0f       	add	r24, r20
    125c:	91 1d       	adc	r25, r1
    125e:	47 fd       	sbrc	r20, 7
    1260:	9a 95       	dec	r25
    1262:	90 93 01 01 	sts	0x0101, r25	; 0x800101 <__data_start+0x1>
    1266:	80 93 00 01 	sts	0x0100, r24	; 0x800100 <__data_start>
  if((encodersVolumeValue == 0) && (currentAdjustmentValue == CCW)) 
    126a:	00 97       	sbiw	r24, 0x00	; 0
    126c:	19 f4       	brne	.+6      	; 0x1274 <VolumeSetMode+0x3a>
    126e:	4f 3f       	cpi	r20, 0xFF	; 255
    1270:	61 f0       	breq	.+24     	; 0x128a <VolumeSetMode+0x50>
  }else if(encodersVolumeValue > 0xFF)
  {
    encodersVolumeValue = 0;
  }
  return encodersVolumeValue*2;
}
    1272:	08 95       	ret
  currentAdjustmentValue = EncoderValueDirection(currentEncoderValue);
  encodersVolumeValue += currentAdjustmentValue;
  if((encodersVolumeValue == 0) && (currentAdjustmentValue == CCW)) 
  {
    encodersVolumeValue = 0xFF;
  }else if(encodersVolumeValue > 0xFF)
    1274:	8f 3f       	cpi	r24, 0xFF	; 255
    1276:	91 05       	cpc	r25, r1
    1278:	89 f0       	breq	.+34     	; 0x129c <VolumeSetMode+0x62>
    127a:	80 f0       	brcs	.+32     	; 0x129c <VolumeSetMode+0x62>
  {
    encodersVolumeValue = 0;
    127c:	10 92 01 01 	sts	0x0101, r1	; 0x800101 <__data_start+0x1>
    1280:	10 92 00 01 	sts	0x0100, r1	; 0x800100 <__data_start>
    1284:	80 e0       	ldi	r24, 0x00	; 0
    1286:	90 e0       	ldi	r25, 0x00	; 0
  }
  return encodersVolumeValue*2;
}
    1288:	08 95       	ret
  currentEncoderValue = (SPI_read(currentAdjustmentValue));  
  currentAdjustmentValue = EncoderValueDirection(currentEncoderValue);
  encodersVolumeValue += currentAdjustmentValue;
  if((encodersVolumeValue == 0) && (currentAdjustmentValue == CCW)) 
  {
    encodersVolumeValue = 0xFF;
    128a:	8f ef       	ldi	r24, 0xFF	; 255
    128c:	90 e0       	ldi	r25, 0x00	; 0
    128e:	90 93 01 01 	sts	0x0101, r25	; 0x800101 <__data_start+0x1>
    1292:	80 93 00 01 	sts	0x0100, r24	; 0x800100 <__data_start>
    1296:	8e ef       	ldi	r24, 0xFE	; 254
    1298:	91 e0       	ldi	r25, 0x01	; 1
    129a:	08 95       	ret
    129c:	88 0f       	add	r24, r24
    129e:	99 1f       	adc	r25, r25
    12a0:	08 95       	ret

000012a2 <init>:
{
//  TCNT0 - Norm Mode | Using external 32kHz clock | 128 Prescale	!Count to 250 using uint8_t to reach 1 second for clock!
//  TCNT1 - CTC  Mode | Pick freuquency      | Output too PD7		!Outputs to summing amp, which gets outputted to speaker!
//  TCNT2 - Fast PWM  | Output to PB7 (OC2)  				!Controls brightness of LED Display!
//  TCNT3 - Fast PWM  | Output to PE5 (OC3C)				!Controls volume to Audio Amp!
DDRA  = 0xFF;	      		    //set port A as input  				
    12a2:	8f ef       	ldi	r24, 0xFF	; 255
    12a4:	8a bb       	out	0x1a, r24	; 26
DDRB  = 0xFF; 	      		    //set port B as outputs
    12a6:	87 bb       	out	0x17, r24	; 23
DDRD  |= (1 << PD7);   		    //Sets Port pin2 D to output
    12a8:	8f 9a       	sbi	0x11, 7	; 17
DDRE  |= (1 << PE5) | (1 << PE6);   //Sets Port pin6 E to output
    12aa:	82 b1       	in	r24, 0x02	; 2
    12ac:	80 66       	ori	r24, 0x60	; 96
    12ae:	82 b9       	out	0x02, r24	; 2
PORTD = 0x00;   		    //set port D to LOW
    12b0:	12 ba       	out	0x12, r1	; 18
PORTB = 0x10;   		    //set port B to start with LED1  	
    12b2:	80 e1       	ldi	r24, 0x10	; 16
    12b4:	88 bb       	out	0x18, r24	; 24

ASSR   |= (1 << AS0);			//Use external 32kHz clock 
    12b6:	80 b7       	in	r24, 0x30	; 48
    12b8:	88 60       	ori	r24, 0x08	; 8
    12ba:	80 bf       	out	0x30, r24	; 48
SPCR   |= (1 << SPE)   | (1 << MSTR);	//Enable SPI communication in mastermode
    12bc:	8d b1       	in	r24, 0x0d	; 13
    12be:	80 65       	ori	r24, 0x50	; 80
    12c0:	8d b9       	out	0x0d, r24	; 13
SPSR    = (1 << SPI2X); 		//SPI at 2x speed (8 MHz)  
    12c2:	81 e0       	ldi	r24, 0x01	; 1
    12c4:	8e b9       	out	0x0e, r24	; 14
TIMSK  |= (1 << TOIE0) | (1 << OCIE1A);	//enable interrupt on compare & overflow of TCNT1
    12c6:	87 b7       	in	r24, 0x37	; 55
    12c8:	81 61       	ori	r24, 0x11	; 17
    12ca:	87 bf       	out	0x37, r24	; 55
TCCR0  |= (1 << CS00)  | (1 << CS02);	//normal mode, prescale by 128
    12cc:	83 b7       	in	r24, 0x33	; 51
    12ce:	85 60       	ori	r24, 0x05	; 5
    12d0:	83 bf       	out	0x33, r24	; 51
TCCR1A  = 0;
    12d2:	1f bc       	out	0x2f, r1	; 47
TCCR1B |= (1 << WGM12); 		//CTC mode clear at TOP immediate
    12d4:	8e b5       	in	r24, 0x2e	; 46
    12d6:	88 60       	ori	r24, 0x08	; 8
    12d8:	8e bd       	out	0x2e, r24	; 46
TCCR1C  = 0;
    12da:	10 92 7a 00 	sts	0x007A, r1	; 0x80007a <__TEXT_REGION_LENGTH__+0x7e007a>
TCCR3A |= (1 << COM3C1) | (1 << WGM30);	//Set as output compare to OC3C (PE5)
    12de:	eb e8       	ldi	r30, 0x8B	; 139
    12e0:	f0 e0       	ldi	r31, 0x00	; 0
    12e2:	80 81       	ld	r24, Z
    12e4:	89 60       	ori	r24, 0x09	; 9
    12e6:	80 83       	st	Z, r24
//TCCR3A |= (1 << WGM32);
TCCR3B |= (1 << WGM32) | (1 << CS00); 
    12e8:	ea e8       	ldi	r30, 0x8A	; 138
    12ea:	f0 e0       	ldi	r31, 0x00	; 0
    12ec:	80 81       	ld	r24, Z
    12ee:	89 60       	ori	r24, 0x09	; 9
    12f0:	80 83       	st	Z, r24
OCR1A  = 0xF0F;
    12f2:	8f e0       	ldi	r24, 0x0F	; 15
    12f4:	9f e0       	ldi	r25, 0x0F	; 15
    12f6:	9b bd       	out	0x2b, r25	; 43
    12f8:	8a bd       	out	0x2a, r24	; 42
OCR3C  = 0x00;
    12fa:	10 92 83 00 	sts	0x0083, r1	; 0x800083 <__TEXT_REGION_LENGTH__+0x7e0083>
    12fe:	10 92 82 00 	sts	0x0082, r1	; 0x800082 <__TEXT_REGION_LENGTH__+0x7e0082>
TCCR2  |= (1 << WGM21) | (1 << WGM20) | (1 << COM21) | (1 << CS21); // Set TCNT2 to fast pwm outputting to OC2 (PB7)
    1302:	85 b5       	in	r24, 0x25	; 37
    1304:	8a 66       	ori	r24, 0x6A	; 106
    1306:	85 bd       	out	0x25, r24	; 37
ADCSRA |= (1 << ADPS2) | (1 << ADPS1) | (1 << ADPS0); 		    // Set ADC prescalar to 128 - 125KHz sample rate @ 16MHz
    1308:	86 b1       	in	r24, 0x06	; 6
    130a:	87 60       	ori	r24, 0x07	; 7
    130c:	86 b9       	out	0x06, r24	; 6
ADMUX  |= (1 << REFS0); // Set ADC reference to AVCC
    130e:	3e 9a       	sbi	0x07, 6	; 7
ADMUX  |= (1 << ADLAR); // Left adjust ADC result to allow easy 8 bit reading
    1310:	3d 9a       	sbi	0x07, 5	; 7
ADCSRA |= (1 << ADFR);  // Set ADC to Free-Running Mode
    1312:	35 9a       	sbi	0x06, 5	; 6
ADCSRA |= (1 << ADEN);  // Enable ADC
    1314:	37 9a       	sbi	0x06, 7	; 6
ADCSRA |= (1 << ADSC);  // Start A2D Conversions
    1316:	36 9a       	sbi	0x06, 6	; 6
lcd_init();
    1318:	0e 94 c8 0b 	call	0x1790	; 0x1790 <lcd_init>
music_init();
    131c:	0e 94 79 04 	call	0x8f2	; 0x8f2 <music_init>
sei();
    1320:	78 94       	sei
    1322:	08 95       	ret

00001324 <send_lcd>:
// Commnads that require more time have delays built in for them.
//
void send_lcd(uint8_t cmd_or_char, uint8_t byte){

#if SPI_MODE==1
  SPDR = (cmd_or_char)? 0x01 : 0x00;  //send the proper value for intent
    1324:	91 e0       	ldi	r25, 0x01	; 1
    1326:	81 11       	cpse	r24, r1
    1328:	01 c0       	rjmp	.+2      	; 0x132c <send_lcd+0x8>
    132a:	90 e0       	ldi	r25, 0x00	; 0
    132c:	9f b9       	out	0x0f, r25	; 15
  while (bit_is_clear(SPSR,SPIF)){}   //wait till byte is sent out
    132e:	77 9b       	sbis	0x0e, 7	; 14
    1330:	fe cf       	rjmp	.-4      	; 0x132e <send_lcd+0xa>
  SPDR = byte;                        //send payload
    1332:	6f b9       	out	0x0f, r22	; 15
  while (bit_is_clear(SPSR,SPIF)){}   //wait till byte is sent out
    1334:	77 9b       	sbis	0x0e, 7	; 14
    1336:	fe cf       	rjmp	.-4      	; 0x1334 <send_lcd+0x10>
//pulse width for a 4 Mhz clock.
//TODO: make number of nops executed dependent on F_CPU, not hardcoded
//
void strobe_lcd(void){ 
#if SPI_MODE==1
 PORTF |=  0x08; PORTF &= ~0x08; //toggle port F bit 3, LCD strobe trigger
    1338:	80 91 62 00 	lds	r24, 0x0062	; 0x800062 <__TEXT_REGION_LENGTH__+0x7e0062>
    133c:	88 60       	ori	r24, 0x08	; 8
    133e:	80 93 62 00 	sts	0x0062, r24	; 0x800062 <__TEXT_REGION_LENGTH__+0x7e0062>
    1342:	80 91 62 00 	lds	r24, 0x0062	; 0x800062 <__TEXT_REGION_LENGTH__+0x7e0062>
    1346:	87 7f       	andi	r24, 0xF7	; 247
    1348:	80 93 62 00 	sts	0x0062, r24	; 0x800062 <__TEXT_REGION_LENGTH__+0x7e0062>
    134c:	08 95       	ret

0000134e <refresh_lcd>:
//
void refresh_lcd(char lcd_string_array[]) {

  static uint8_t i=0;           // index into string array 

 send_lcd(CHAR_BYTE,lcd_string_array[i]);
    134e:	20 91 45 01 	lds	r18, 0x0145	; 0x800145 <i.2094>
    1352:	82 0f       	add	r24, r18
    1354:	91 1d       	adc	r25, r1
    1356:	fc 01       	movw	r30, r24
    1358:	80 81       	ld	r24, Z
// Commnads that require more time have delays built in for them.
//
void send_lcd(uint8_t cmd_or_char, uint8_t byte){

#if SPI_MODE==1
  SPDR = (cmd_or_char)? 0x01 : 0x00;  //send the proper value for intent
    135a:	91 e0       	ldi	r25, 0x01	; 1
    135c:	9f b9       	out	0x0f, r25	; 15
  while (bit_is_clear(SPSR,SPIF)){}   //wait till byte is sent out
    135e:	77 9b       	sbis	0x0e, 7	; 14
    1360:	fe cf       	rjmp	.-4      	; 0x135e <refresh_lcd+0x10>
  SPDR = byte;                        //send payload
    1362:	8f b9       	out	0x0f, r24	; 15
  while (bit_is_clear(SPSR,SPIF)){}   //wait till byte is sent out
    1364:	77 9b       	sbis	0x0e, 7	; 14
    1366:	fe cf       	rjmp	.-4      	; 0x1364 <refresh_lcd+0x16>
//pulse width for a 4 Mhz clock.
//TODO: make number of nops executed dependent on F_CPU, not hardcoded
//
void strobe_lcd(void){ 
#if SPI_MODE==1
 PORTF |=  0x08; PORTF &= ~0x08; //toggle port F bit 3, LCD strobe trigger
    1368:	80 91 62 00 	lds	r24, 0x0062	; 0x800062 <__TEXT_REGION_LENGTH__+0x7e0062>
    136c:	88 60       	ori	r24, 0x08	; 8
    136e:	80 93 62 00 	sts	0x0062, r24	; 0x800062 <__TEXT_REGION_LENGTH__+0x7e0062>
    1372:	80 91 62 00 	lds	r24, 0x0062	; 0x800062 <__TEXT_REGION_LENGTH__+0x7e0062>
    1376:	87 7f       	andi	r24, 0xF7	; 247
    1378:	80 93 62 00 	sts	0x0062, r24	; 0x800062 <__TEXT_REGION_LENGTH__+0x7e0062>
void refresh_lcd(char lcd_string_array[]) {

  static uint8_t i=0;           // index into string array 

 send_lcd(CHAR_BYTE,lcd_string_array[i]);
 i++;   //increment to next character
    137c:	80 91 45 01 	lds	r24, 0x0145	; 0x800145 <i.2094>
    1380:	8f 5f       	subi	r24, 0xFF	; 255
    1382:	80 93 45 01 	sts	0x0145, r24	; 0x800145 <i.2094>
 //delays are inserted to allow character to be written before moving
 //the cursor to the next line.
 if(i == 16){_delay_us(40); line2_col1();      } //goto line 2, 1st char 
    1386:	80 31       	cpi	r24, 0x10	; 16
    1388:	d9 f0       	breq	.+54     	; 0x13c0 <refresh_lcd+0x72>
 if(i == 32){_delay_us(40); line1_col1(); i=0; } //goto line 1, 1st char 
    138a:	80 32       	cpi	r24, 0x20	; 32
    138c:	09 f0       	breq	.+2      	; 0x1390 <refresh_lcd+0x42>
    138e:	08 95       	ret
    1390:	85 ed       	ldi	r24, 0xD5	; 213
    1392:	8a 95       	dec	r24
    1394:	f1 f7       	brne	.-4      	; 0x1392 <refresh_lcd+0x44>
    1396:	00 00       	nop
// Commnads that require more time have delays built in for them.
//
void send_lcd(uint8_t cmd_or_char, uint8_t byte){

#if SPI_MODE==1
  SPDR = (cmd_or_char)? 0x01 : 0x00;  //send the proper value for intent
    1398:	1f b8       	out	0x0f, r1	; 15
  while (bit_is_clear(SPSR,SPIF)){}   //wait till byte is sent out
    139a:	77 9b       	sbis	0x0e, 7	; 14
    139c:	fe cf       	rjmp	.-4      	; 0x139a <refresh_lcd+0x4c>
  SPDR = byte;                        //send payload
    139e:	80 e8       	ldi	r24, 0x80	; 128
    13a0:	8f b9       	out	0x0f, r24	; 15
  while (bit_is_clear(SPSR,SPIF)){}   //wait till byte is sent out
    13a2:	77 9b       	sbis	0x0e, 7	; 14
    13a4:	fe cf       	rjmp	.-4      	; 0x13a2 <refresh_lcd+0x54>
//pulse width for a 4 Mhz clock.
//TODO: make number of nops executed dependent on F_CPU, not hardcoded
//
void strobe_lcd(void){ 
#if SPI_MODE==1
 PORTF |=  0x08; PORTF &= ~0x08; //toggle port F bit 3, LCD strobe trigger
    13a6:	80 91 62 00 	lds	r24, 0x0062	; 0x800062 <__TEXT_REGION_LENGTH__+0x7e0062>
    13aa:	88 60       	ori	r24, 0x08	; 8
    13ac:	80 93 62 00 	sts	0x0062, r24	; 0x800062 <__TEXT_REGION_LENGTH__+0x7e0062>
    13b0:	80 91 62 00 	lds	r24, 0x0062	; 0x800062 <__TEXT_REGION_LENGTH__+0x7e0062>
    13b4:	87 7f       	andi	r24, 0xF7	; 247
    13b6:	80 93 62 00 	sts	0x0062, r24	; 0x800062 <__TEXT_REGION_LENGTH__+0x7e0062>
 send_lcd(CHAR_BYTE,lcd_string_array[i]);
 i++;   //increment to next character
 //delays are inserted to allow character to be written before moving
 //the cursor to the next line.
 if(i == 16){_delay_us(40); line2_col1();      } //goto line 2, 1st char 
 if(i == 32){_delay_us(40); line1_col1(); i=0; } //goto line 1, 1st char 
    13ba:	10 92 45 01 	sts	0x0145, r1	; 0x800145 <i.2094>
    13be:	08 95       	ret
    13c0:	f5 ed       	ldi	r31, 0xD5	; 213
    13c2:	fa 95       	dec	r31
    13c4:	f1 f7       	brne	.-4      	; 0x13c2 <refresh_lcd+0x74>
    13c6:	00 00       	nop
// Commnads that require more time have delays built in for them.
//
void send_lcd(uint8_t cmd_or_char, uint8_t byte){

#if SPI_MODE==1
  SPDR = (cmd_or_char)? 0x01 : 0x00;  //send the proper value for intent
    13c8:	1f b8       	out	0x0f, r1	; 15
  while (bit_is_clear(SPSR,SPIF)){}   //wait till byte is sent out
    13ca:	77 9b       	sbis	0x0e, 7	; 14
    13cc:	fe cf       	rjmp	.-4      	; 0x13ca <refresh_lcd+0x7c>
  SPDR = byte;                        //send payload
    13ce:	80 ec       	ldi	r24, 0xC0	; 192
    13d0:	8f b9       	out	0x0f, r24	; 15
  while (bit_is_clear(SPSR,SPIF)){}   //wait till byte is sent out
    13d2:	77 9b       	sbis	0x0e, 7	; 14
    13d4:	fe cf       	rjmp	.-4      	; 0x13d2 <refresh_lcd+0x84>
//pulse width for a 4 Mhz clock.
//TODO: make number of nops executed dependent on F_CPU, not hardcoded
//
void strobe_lcd(void){ 
#if SPI_MODE==1
 PORTF |=  0x08; PORTF &= ~0x08; //toggle port F bit 3, LCD strobe trigger
    13d6:	80 91 62 00 	lds	r24, 0x0062	; 0x800062 <__TEXT_REGION_LENGTH__+0x7e0062>
    13da:	88 60       	ori	r24, 0x08	; 8
    13dc:	80 93 62 00 	sts	0x0062, r24	; 0x800062 <__TEXT_REGION_LENGTH__+0x7e0062>
    13e0:	80 91 62 00 	lds	r24, 0x0062	; 0x800062 <__TEXT_REGION_LENGTH__+0x7e0062>
    13e4:	87 7f       	andi	r24, 0xF7	; 247
    13e6:	80 93 62 00 	sts	0x0062, r24	; 0x800062 <__TEXT_REGION_LENGTH__+0x7e0062>
    13ea:	80 91 45 01 	lds	r24, 0x0145	; 0x800145 <i.2094>
    13ee:	cd cf       	rjmp	.-102    	; 0x138a <refresh_lcd+0x3c>

000013f0 <set_custom_character>:
//address, such as send_lcd(CHAR_BYTE, 0x01, 1) or it can be insteretd into a string 
//via a forward slash escape as in string2lcd("this is my music note \1")

void set_custom_character(uint8_t data[], uint8_t address){
    uint8_t i;
    send_lcd(CMD_BYTE, 0x40 + (address << 3)); _delay_us(40);  //only needs 37uS
    13f0:	66 0f       	add	r22, r22
    13f2:	66 0f       	add	r22, r22
    13f4:	66 0f       	add	r22, r22
    13f6:	60 5c       	subi	r22, 0xC0	; 192
// Commnads that require more time have delays built in for them.
//
void send_lcd(uint8_t cmd_or_char, uint8_t byte){

#if SPI_MODE==1
  SPDR = (cmd_or_char)? 0x01 : 0x00;  //send the proper value for intent
    13f8:	1f b8       	out	0x0f, r1	; 15
  while (bit_is_clear(SPSR,SPIF)){}   //wait till byte is sent out
    13fa:	77 9b       	sbis	0x0e, 7	; 14
    13fc:	fe cf       	rjmp	.-4      	; 0x13fa <set_custom_character+0xa>
  SPDR = byte;                        //send payload
    13fe:	6f b9       	out	0x0f, r22	; 15
  while (bit_is_clear(SPSR,SPIF)){}   //wait till byte is sent out
    1400:	77 9b       	sbis	0x0e, 7	; 14
    1402:	fe cf       	rjmp	.-4      	; 0x1400 <set_custom_character+0x10>
//pulse width for a 4 Mhz clock.
//TODO: make number of nops executed dependent on F_CPU, not hardcoded
//
void strobe_lcd(void){ 
#if SPI_MODE==1
 PORTF |=  0x08; PORTF &= ~0x08; //toggle port F bit 3, LCD strobe trigger
    1404:	20 91 62 00 	lds	r18, 0x0062	; 0x800062 <__TEXT_REGION_LENGTH__+0x7e0062>
    1408:	28 60       	ori	r18, 0x08	; 8
    140a:	20 93 62 00 	sts	0x0062, r18	; 0x800062 <__TEXT_REGION_LENGTH__+0x7e0062>
    140e:	20 91 62 00 	lds	r18, 0x0062	; 0x800062 <__TEXT_REGION_LENGTH__+0x7e0062>
    1412:	27 7f       	andi	r18, 0xF7	; 247
    1414:	20 93 62 00 	sts	0x0062, r18	; 0x800062 <__TEXT_REGION_LENGTH__+0x7e0062>
    1418:	25 ed       	ldi	r18, 0xD5	; 213
    141a:	2a 95       	dec	r18
    141c:	f1 f7       	brne	.-4      	; 0x141a <set_custom_character+0x2a>
    141e:	00 00       	nop
    1420:	fc 01       	movw	r30, r24
    1422:	9c 01       	movw	r18, r24
    1424:	28 5f       	subi	r18, 0xF8	; 248
    1426:	3f 4f       	sbci	r19, 0xFF	; 255
// Commnads that require more time have delays built in for them.
//
void send_lcd(uint8_t cmd_or_char, uint8_t byte){

#if SPI_MODE==1
  SPDR = (cmd_or_char)? 0x01 : 0x00;  //send the proper value for intent
    1428:	91 e0       	ldi	r25, 0x01	; 1

void set_custom_character(uint8_t data[], uint8_t address){
    uint8_t i;
    send_lcd(CMD_BYTE, 0x40 + (address << 3)); _delay_us(40);  //only needs 37uS
    for(i=0; i<8; i++){
      send_lcd(CHAR_BYTE, data[i]); _delay_us(40); //each char byte takes 37us to execute
    142a:	81 91       	ld	r24, Z+
// Commnads that require more time have delays built in for them.
//
void send_lcd(uint8_t cmd_or_char, uint8_t byte){

#if SPI_MODE==1
  SPDR = (cmd_or_char)? 0x01 : 0x00;  //send the proper value for intent
    142c:	9f b9       	out	0x0f, r25	; 15
  while (bit_is_clear(SPSR,SPIF)){}   //wait till byte is sent out
    142e:	77 9b       	sbis	0x0e, 7	; 14
    1430:	fe cf       	rjmp	.-4      	; 0x142e <set_custom_character+0x3e>
  SPDR = byte;                        //send payload
    1432:	8f b9       	out	0x0f, r24	; 15
  while (bit_is_clear(SPSR,SPIF)){}   //wait till byte is sent out
    1434:	77 9b       	sbis	0x0e, 7	; 14
    1436:	fe cf       	rjmp	.-4      	; 0x1434 <set_custom_character+0x44>
//pulse width for a 4 Mhz clock.
//TODO: make number of nops executed dependent on F_CPU, not hardcoded
//
void strobe_lcd(void){ 
#if SPI_MODE==1
 PORTF |=  0x08; PORTF &= ~0x08; //toggle port F bit 3, LCD strobe trigger
    1438:	80 91 62 00 	lds	r24, 0x0062	; 0x800062 <__TEXT_REGION_LENGTH__+0x7e0062>
    143c:	88 60       	ori	r24, 0x08	; 8
    143e:	80 93 62 00 	sts	0x0062, r24	; 0x800062 <__TEXT_REGION_LENGTH__+0x7e0062>
    1442:	80 91 62 00 	lds	r24, 0x0062	; 0x800062 <__TEXT_REGION_LENGTH__+0x7e0062>
    1446:	87 7f       	andi	r24, 0xF7	; 247
    1448:	80 93 62 00 	sts	0x0062, r24	; 0x800062 <__TEXT_REGION_LENGTH__+0x7e0062>
    144c:	85 ed       	ldi	r24, 0xD5	; 213
    144e:	8a 95       	dec	r24
    1450:	f1 f7       	brne	.-4      	; 0x144e <set_custom_character+0x5e>
    1452:	00 00       	nop
//via a forward slash escape as in string2lcd("this is my music note \1")

void set_custom_character(uint8_t data[], uint8_t address){
    uint8_t i;
    send_lcd(CMD_BYTE, 0x40 + (address << 3)); _delay_us(40);  //only needs 37uS
    for(i=0; i<8; i++){
    1454:	e2 17       	cp	r30, r18
    1456:	f3 07       	cpc	r31, r19
    1458:	41 f7       	brne	.-48     	; 0x142a <set_custom_character+0x3a>
      send_lcd(CHAR_BYTE, data[i]); _delay_us(40); //each char byte takes 37us to execute
    }
}
    145a:	08 95       	ret

0000145c <set_cursor>:
//                          set_cursor 
//
//Sets the cursor to an arbitrary potition on the screen, row is either 1 or 2
//col is a number form 0-15, counting from left to right
void set_cursor(uint8_t row, uint8_t col){
    send_lcd(CMD_BYTE, 0x80 + col + ((row-1)*0x40));
    145c:	90 e4       	ldi	r25, 0x40	; 64
    145e:	89 9f       	mul	r24, r25
    1460:	60 0d       	add	r22, r0
    1462:	11 24       	eor	r1, r1
    1464:	60 5c       	subi	r22, 0xC0	; 192
// Commnads that require more time have delays built in for them.
//
void send_lcd(uint8_t cmd_or_char, uint8_t byte){

#if SPI_MODE==1
  SPDR = (cmd_or_char)? 0x01 : 0x00;  //send the proper value for intent
    1466:	1f b8       	out	0x0f, r1	; 15
  while (bit_is_clear(SPSR,SPIF)){}   //wait till byte is sent out
    1468:	77 9b       	sbis	0x0e, 7	; 14
    146a:	fe cf       	rjmp	.-4      	; 0x1468 <set_cursor+0xc>
  SPDR = byte;                        //send payload
    146c:	6f b9       	out	0x0f, r22	; 15
  while (bit_is_clear(SPSR,SPIF)){}   //wait till byte is sent out
    146e:	77 9b       	sbis	0x0e, 7	; 14
    1470:	fe cf       	rjmp	.-4      	; 0x146e <set_cursor+0x12>
//pulse width for a 4 Mhz clock.
//TODO: make number of nops executed dependent on F_CPU, not hardcoded
//
void strobe_lcd(void){ 
#if SPI_MODE==1
 PORTF |=  0x08; PORTF &= ~0x08; //toggle port F bit 3, LCD strobe trigger
    1472:	80 91 62 00 	lds	r24, 0x0062	; 0x800062 <__TEXT_REGION_LENGTH__+0x7e0062>
    1476:	88 60       	ori	r24, 0x08	; 8
    1478:	80 93 62 00 	sts	0x0062, r24	; 0x800062 <__TEXT_REGION_LENGTH__+0x7e0062>
    147c:	80 91 62 00 	lds	r24, 0x0062	; 0x800062 <__TEXT_REGION_LENGTH__+0x7e0062>
    1480:	87 7f       	andi	r24, 0xF7	; 247
    1482:	80 93 62 00 	sts	0x0062, r24	; 0x800062 <__TEXT_REGION_LENGTH__+0x7e0062>
    1486:	08 95       	ret

00001488 <uint2lcd>:
//not displayed.  
//TODO: optimize by removing the mod operators
//TODO: Should be renamed uint8_2lcd(). Also, implement a uint16_2lcd() function

void uint2lcd(uint8_t number){
    if  (number == 0)  {send_lcd(CHAR_BYTE, 0x30                ); }
    1488:	81 11       	cpse	r24, r1
    148a:	13 c0       	rjmp	.+38     	; 0x14b2 <uint2lcd+0x2a>
// Commnads that require more time have delays built in for them.
//
void send_lcd(uint8_t cmd_or_char, uint8_t byte){

#if SPI_MODE==1
  SPDR = (cmd_or_char)? 0x01 : 0x00;  //send the proper value for intent
    148c:	81 e0       	ldi	r24, 0x01	; 1
    148e:	8f b9       	out	0x0f, r24	; 15
  while (bit_is_clear(SPSR,SPIF)){}   //wait till byte is sent out
    1490:	77 9b       	sbis	0x0e, 7	; 14
    1492:	fe cf       	rjmp	.-4      	; 0x1490 <uint2lcd+0x8>
  SPDR = byte;                        //send payload
    1494:	80 e3       	ldi	r24, 0x30	; 48
    1496:	8f b9       	out	0x0f, r24	; 15
  while (bit_is_clear(SPSR,SPIF)){}   //wait till byte is sent out
    1498:	77 9b       	sbis	0x0e, 7	; 14
    149a:	fe cf       	rjmp	.-4      	; 0x1498 <uint2lcd+0x10>
//pulse width for a 4 Mhz clock.
//TODO: make number of nops executed dependent on F_CPU, not hardcoded
//
void strobe_lcd(void){ 
#if SPI_MODE==1
 PORTF |=  0x08; PORTF &= ~0x08; //toggle port F bit 3, LCD strobe trigger
    149c:	80 91 62 00 	lds	r24, 0x0062	; 0x800062 <__TEXT_REGION_LENGTH__+0x7e0062>
    14a0:	88 60       	ori	r24, 0x08	; 8
    14a2:	80 93 62 00 	sts	0x0062, r24	; 0x800062 <__TEXT_REGION_LENGTH__+0x7e0062>
    14a6:	80 91 62 00 	lds	r24, 0x0062	; 0x800062 <__TEXT_REGION_LENGTH__+0x7e0062>
    14aa:	87 7f       	andi	r24, 0xF7	; 247
    14ac:	80 93 62 00 	sts	0x0062, r24	; 0x800062 <__TEXT_REGION_LENGTH__+0x7e0062>
    14b0:	08 95       	ret
//TODO: Should be renamed uint8_2lcd(). Also, implement a uint16_2lcd() function

void uint2lcd(uint8_t number){
    if  (number == 0)  {send_lcd(CHAR_BYTE, 0x30                ); }
    else{
      if(number >= 100){send_lcd(CHAR_BYTE, 0x30+number/100     ); }
    14b2:	84 36       	cpi	r24, 0x64	; 100
    14b4:	b0 f4       	brcc	.+44     	; 0x14e2 <uint2lcd+0x5a>
      if(number >= 10) {send_lcd(CHAR_BYTE, 0x30+(number%100)/10); }
    14b6:	8a 30       	cpi	r24, 0x0A	; 10
    14b8:	60 f5       	brcc	.+88     	; 0x1512 <uint2lcd+0x8a>
// Commnads that require more time have delays built in for them.
//
void send_lcd(uint8_t cmd_or_char, uint8_t byte){

#if SPI_MODE==1
  SPDR = (cmd_or_char)? 0x01 : 0x00;  //send the proper value for intent
    14ba:	91 e0       	ldi	r25, 0x01	; 1
    14bc:	9f b9       	out	0x0f, r25	; 15
  while (bit_is_clear(SPSR,SPIF)){}   //wait till byte is sent out
    14be:	77 9b       	sbis	0x0e, 7	; 14
    14c0:	fe cf       	rjmp	.-4      	; 0x14be <uint2lcd+0x36>
void uint2lcd(uint8_t number){
    if  (number == 0)  {send_lcd(CHAR_BYTE, 0x30                ); }
    else{
      if(number >= 100){send_lcd(CHAR_BYTE, 0x30+number/100     ); }
      if(number >= 10) {send_lcd(CHAR_BYTE, 0x30+(number%100)/10); }
      if(number >= 1)  {send_lcd(CHAR_BYTE, 0x30+(number%10)    ); }
    14c2:	9d ec       	ldi	r25, 0xCD	; 205
    14c4:	89 9f       	mul	r24, r25
    14c6:	91 2d       	mov	r25, r1
    14c8:	11 24       	eor	r1, r1
    14ca:	96 95       	lsr	r25
    14cc:	96 95       	lsr	r25
    14ce:	96 95       	lsr	r25
    14d0:	2a e0       	ldi	r18, 0x0A	; 10
    14d2:	92 9f       	mul	r25, r18
    14d4:	80 19       	sub	r24, r0
    14d6:	11 24       	eor	r1, r1
    14d8:	80 5d       	subi	r24, 0xD0	; 208
void send_lcd(uint8_t cmd_or_char, uint8_t byte){

#if SPI_MODE==1
  SPDR = (cmd_or_char)? 0x01 : 0x00;  //send the proper value for intent
  while (bit_is_clear(SPSR,SPIF)){}   //wait till byte is sent out
  SPDR = byte;                        //send payload
    14da:	8f b9       	out	0x0f, r24	; 15
  while (bit_is_clear(SPSR,SPIF)){}   //wait till byte is sent out
    14dc:	77 9b       	sbis	0x0e, 7	; 14
    14de:	fe cf       	rjmp	.-4      	; 0x14dc <uint2lcd+0x54>
    14e0:	dd cf       	rjmp	.-70     	; 0x149c <uint2lcd+0x14>
//TODO: Should be renamed uint8_2lcd(). Also, implement a uint16_2lcd() function

void uint2lcd(uint8_t number){
    if  (number == 0)  {send_lcd(CHAR_BYTE, 0x30                ); }
    else{
      if(number >= 100){send_lcd(CHAR_BYTE, 0x30+number/100     ); }
    14e2:	99 e2       	ldi	r25, 0x29	; 41
    14e4:	89 9f       	mul	r24, r25
    14e6:	91 2d       	mov	r25, r1
    14e8:	11 24       	eor	r1, r1
    14ea:	92 95       	swap	r25
    14ec:	9f 70       	andi	r25, 0x0F	; 15
    14ee:	90 5d       	subi	r25, 0xD0	; 208
// Commnads that require more time have delays built in for them.
//
void send_lcd(uint8_t cmd_or_char, uint8_t byte){

#if SPI_MODE==1
  SPDR = (cmd_or_char)? 0x01 : 0x00;  //send the proper value for intent
    14f0:	21 e0       	ldi	r18, 0x01	; 1
    14f2:	2f b9       	out	0x0f, r18	; 15
  while (bit_is_clear(SPSR,SPIF)){}   //wait till byte is sent out
    14f4:	77 9b       	sbis	0x0e, 7	; 14
    14f6:	fe cf       	rjmp	.-4      	; 0x14f4 <uint2lcd+0x6c>
  SPDR = byte;                        //send payload
    14f8:	9f b9       	out	0x0f, r25	; 15
  while (bit_is_clear(SPSR,SPIF)){}   //wait till byte is sent out
    14fa:	77 9b       	sbis	0x0e, 7	; 14
    14fc:	fe cf       	rjmp	.-4      	; 0x14fa <uint2lcd+0x72>
//pulse width for a 4 Mhz clock.
//TODO: make number of nops executed dependent on F_CPU, not hardcoded
//
void strobe_lcd(void){ 
#if SPI_MODE==1
 PORTF |=  0x08; PORTF &= ~0x08; //toggle port F bit 3, LCD strobe trigger
    14fe:	90 91 62 00 	lds	r25, 0x0062	; 0x800062 <__TEXT_REGION_LENGTH__+0x7e0062>
    1502:	98 60       	ori	r25, 0x08	; 8
    1504:	90 93 62 00 	sts	0x0062, r25	; 0x800062 <__TEXT_REGION_LENGTH__+0x7e0062>
    1508:	90 91 62 00 	lds	r25, 0x0062	; 0x800062 <__TEXT_REGION_LENGTH__+0x7e0062>
    150c:	97 7f       	andi	r25, 0xF7	; 247
    150e:	90 93 62 00 	sts	0x0062, r25	; 0x800062 <__TEXT_REGION_LENGTH__+0x7e0062>

void uint2lcd(uint8_t number){
    if  (number == 0)  {send_lcd(CHAR_BYTE, 0x30                ); }
    else{
      if(number >= 100){send_lcd(CHAR_BYTE, 0x30+number/100     ); }
      if(number >= 10) {send_lcd(CHAR_BYTE, 0x30+(number%100)/10); }
    1512:	99 e2       	ldi	r25, 0x29	; 41
    1514:	89 9f       	mul	r24, r25
    1516:	91 2d       	mov	r25, r1
    1518:	11 24       	eor	r1, r1
    151a:	92 95       	swap	r25
    151c:	9f 70       	andi	r25, 0x0F	; 15
    151e:	38 2f       	mov	r19, r24
    1520:	24 e6       	ldi	r18, 0x64	; 100
    1522:	92 9f       	mul	r25, r18
    1524:	30 19       	sub	r19, r0
    1526:	11 24       	eor	r1, r1
    1528:	2d ec       	ldi	r18, 0xCD	; 205
    152a:	32 9f       	mul	r19, r18
    152c:	91 2d       	mov	r25, r1
    152e:	11 24       	eor	r1, r1
    1530:	96 95       	lsr	r25
    1532:	96 95       	lsr	r25
    1534:	96 95       	lsr	r25
    1536:	90 5d       	subi	r25, 0xD0	; 208
// Commnads that require more time have delays built in for them.
//
void send_lcd(uint8_t cmd_or_char, uint8_t byte){

#if SPI_MODE==1
  SPDR = (cmd_or_char)? 0x01 : 0x00;  //send the proper value for intent
    1538:	21 e0       	ldi	r18, 0x01	; 1
    153a:	2f b9       	out	0x0f, r18	; 15
  while (bit_is_clear(SPSR,SPIF)){}   //wait till byte is sent out
    153c:	77 9b       	sbis	0x0e, 7	; 14
    153e:	fe cf       	rjmp	.-4      	; 0x153c <uint2lcd+0xb4>
  SPDR = byte;                        //send payload
    1540:	9f b9       	out	0x0f, r25	; 15
  while (bit_is_clear(SPSR,SPIF)){}   //wait till byte is sent out
    1542:	77 9b       	sbis	0x0e, 7	; 14
    1544:	fe cf       	rjmp	.-4      	; 0x1542 <uint2lcd+0xba>
//pulse width for a 4 Mhz clock.
//TODO: make number of nops executed dependent on F_CPU, not hardcoded
//
void strobe_lcd(void){ 
#if SPI_MODE==1
 PORTF |=  0x08; PORTF &= ~0x08; //toggle port F bit 3, LCD strobe trigger
    1546:	90 91 62 00 	lds	r25, 0x0062	; 0x800062 <__TEXT_REGION_LENGTH__+0x7e0062>
    154a:	98 60       	ori	r25, 0x08	; 8
    154c:	90 93 62 00 	sts	0x0062, r25	; 0x800062 <__TEXT_REGION_LENGTH__+0x7e0062>
    1550:	90 91 62 00 	lds	r25, 0x0062	; 0x800062 <__TEXT_REGION_LENGTH__+0x7e0062>
    1554:	97 7f       	andi	r25, 0xF7	; 247
    1556:	90 93 62 00 	sts	0x0062, r25	; 0x800062 <__TEXT_REGION_LENGTH__+0x7e0062>
    155a:	af cf       	rjmp	.-162    	; 0x14ba <uint2lcd+0x32>

0000155c <int2lcd>:
//Takes a 8bit signed and displays it in base ten on the LCD. Leading 0's are 
//not displayed.
//
void int2lcd(int8_t number){
    //if < 0, print minus sign, then take 2's complement of number and display
    if(number < 0){send_lcd(CHAR_BYTE, '-'); _delay_us(40); uint2lcd(~number+1);}  
    155c:	87 ff       	sbrs	r24, 7
    else          {uint2lcd(number);                                            }
    155e:	0c 94 44 0a 	jmp	0x1488	; 0x1488 <uint2lcd>
// Commnads that require more time have delays built in for them.
//
void send_lcd(uint8_t cmd_or_char, uint8_t byte){

#if SPI_MODE==1
  SPDR = (cmd_or_char)? 0x01 : 0x00;  //send the proper value for intent
    1562:	91 e0       	ldi	r25, 0x01	; 1
    1564:	9f b9       	out	0x0f, r25	; 15
  while (bit_is_clear(SPSR,SPIF)){}   //wait till byte is sent out
    1566:	77 9b       	sbis	0x0e, 7	; 14
    1568:	fe cf       	rjmp	.-4      	; 0x1566 <int2lcd+0xa>
  SPDR = byte;                        //send payload
    156a:	9d e2       	ldi	r25, 0x2D	; 45
    156c:	9f b9       	out	0x0f, r25	; 15
  while (bit_is_clear(SPSR,SPIF)){}   //wait till byte is sent out
    156e:	77 9b       	sbis	0x0e, 7	; 14
    1570:	fe cf       	rjmp	.-4      	; 0x156e <int2lcd+0x12>
//pulse width for a 4 Mhz clock.
//TODO: make number of nops executed dependent on F_CPU, not hardcoded
//
void strobe_lcd(void){ 
#if SPI_MODE==1
 PORTF |=  0x08; PORTF &= ~0x08; //toggle port F bit 3, LCD strobe trigger
    1572:	90 91 62 00 	lds	r25, 0x0062	; 0x800062 <__TEXT_REGION_LENGTH__+0x7e0062>
    1576:	98 60       	ori	r25, 0x08	; 8
    1578:	90 93 62 00 	sts	0x0062, r25	; 0x800062 <__TEXT_REGION_LENGTH__+0x7e0062>
    157c:	90 91 62 00 	lds	r25, 0x0062	; 0x800062 <__TEXT_REGION_LENGTH__+0x7e0062>
    1580:	97 7f       	andi	r25, 0xF7	; 247
    1582:	90 93 62 00 	sts	0x0062, r25	; 0x800062 <__TEXT_REGION_LENGTH__+0x7e0062>
    1586:	95 ed       	ldi	r25, 0xD5	; 213
    1588:	9a 95       	dec	r25
    158a:	f1 f7       	brne	.-4      	; 0x1588 <int2lcd+0x2c>
    158c:	00 00       	nop
//Takes a 8bit signed and displays it in base ten on the LCD. Leading 0's are 
//not displayed.
//
void int2lcd(int8_t number){
    //if < 0, print minus sign, then take 2's complement of number and display
    if(number < 0){send_lcd(CHAR_BYTE, '-'); _delay_us(40); uint2lcd(~number+1);}  
    158e:	81 95       	neg	r24
    1590:	0c 94 44 0a 	jmp	0x1488	; 0x1488 <uint2lcd>

00001594 <cursor_on>:
// Commnads that require more time have delays built in for them.
//
void send_lcd(uint8_t cmd_or_char, uint8_t byte){

#if SPI_MODE==1
  SPDR = (cmd_or_char)? 0x01 : 0x00;  //send the proper value for intent
    1594:	1f b8       	out	0x0f, r1	; 15
  while (bit_is_clear(SPSR,SPIF)){}   //wait till byte is sent out
    1596:	77 9b       	sbis	0x0e, 7	; 14
    1598:	fe cf       	rjmp	.-4      	; 0x1596 <cursor_on+0x2>
  SPDR = byte;                        //send payload
    159a:	8e e0       	ldi	r24, 0x0E	; 14
    159c:	8f b9       	out	0x0f, r24	; 15
  while (bit_is_clear(SPSR,SPIF)){}   //wait till byte is sent out
    159e:	77 9b       	sbis	0x0e, 7	; 14
    15a0:	fe cf       	rjmp	.-4      	; 0x159e <cursor_on+0xa>
//pulse width for a 4 Mhz clock.
//TODO: make number of nops executed dependent on F_CPU, not hardcoded
//
void strobe_lcd(void){ 
#if SPI_MODE==1
 PORTF |=  0x08; PORTF &= ~0x08; //toggle port F bit 3, LCD strobe trigger
    15a2:	80 91 62 00 	lds	r24, 0x0062	; 0x800062 <__TEXT_REGION_LENGTH__+0x7e0062>
    15a6:	88 60       	ori	r24, 0x08	; 8
    15a8:	80 93 62 00 	sts	0x0062, r24	; 0x800062 <__TEXT_REGION_LENGTH__+0x7e0062>
    15ac:	80 91 62 00 	lds	r24, 0x0062	; 0x800062 <__TEXT_REGION_LENGTH__+0x7e0062>
    15b0:	87 7f       	andi	r24, 0xF7	; 247
    15b2:	80 93 62 00 	sts	0x0062, r24	; 0x800062 <__TEXT_REGION_LENGTH__+0x7e0062>
    15b6:	08 95       	ret

000015b8 <cursor_off>:
// Commnads that require more time have delays built in for them.
//
void send_lcd(uint8_t cmd_or_char, uint8_t byte){

#if SPI_MODE==1
  SPDR = (cmd_or_char)? 0x01 : 0x00;  //send the proper value for intent
    15b8:	1f b8       	out	0x0f, r1	; 15
  while (bit_is_clear(SPSR,SPIF)){}   //wait till byte is sent out
    15ba:	77 9b       	sbis	0x0e, 7	; 14
    15bc:	fe cf       	rjmp	.-4      	; 0x15ba <cursor_off+0x2>
  SPDR = byte;                        //send payload
    15be:	8c e0       	ldi	r24, 0x0C	; 12
    15c0:	8f b9       	out	0x0f, r24	; 15
  while (bit_is_clear(SPSR,SPIF)){}   //wait till byte is sent out
    15c2:	77 9b       	sbis	0x0e, 7	; 14
    15c4:	fe cf       	rjmp	.-4      	; 0x15c2 <cursor_off+0xa>
//pulse width for a 4 Mhz clock.
//TODO: make number of nops executed dependent on F_CPU, not hardcoded
//
void strobe_lcd(void){ 
#if SPI_MODE==1
 PORTF |=  0x08; PORTF &= ~0x08; //toggle port F bit 3, LCD strobe trigger
    15c6:	80 91 62 00 	lds	r24, 0x0062	; 0x800062 <__TEXT_REGION_LENGTH__+0x7e0062>
    15ca:	88 60       	ori	r24, 0x08	; 8
    15cc:	80 93 62 00 	sts	0x0062, r24	; 0x800062 <__TEXT_REGION_LENGTH__+0x7e0062>
    15d0:	80 91 62 00 	lds	r24, 0x0062	; 0x800062 <__TEXT_REGION_LENGTH__+0x7e0062>
    15d4:	87 7f       	andi	r24, 0xF7	; 247
    15d6:	80 93 62 00 	sts	0x0062, r24	; 0x800062 <__TEXT_REGION_LENGTH__+0x7e0062>
    15da:	08 95       	ret

000015dc <shift_right>:
// Commnads that require more time have delays built in for them.
//
void send_lcd(uint8_t cmd_or_char, uint8_t byte){

#if SPI_MODE==1
  SPDR = (cmd_or_char)? 0x01 : 0x00;  //send the proper value for intent
    15dc:	1f b8       	out	0x0f, r1	; 15
  while (bit_is_clear(SPSR,SPIF)){}   //wait till byte is sent out
    15de:	77 9b       	sbis	0x0e, 7	; 14
    15e0:	fe cf       	rjmp	.-4      	; 0x15de <shift_right+0x2>
  SPDR = byte;                        //send payload
    15e2:	8e e1       	ldi	r24, 0x1E	; 30
    15e4:	8f b9       	out	0x0f, r24	; 15
  while (bit_is_clear(SPSR,SPIF)){}   //wait till byte is sent out
    15e6:	77 9b       	sbis	0x0e, 7	; 14
    15e8:	fe cf       	rjmp	.-4      	; 0x15e6 <shift_right+0xa>
//pulse width for a 4 Mhz clock.
//TODO: make number of nops executed dependent on F_CPU, not hardcoded
//
void strobe_lcd(void){ 
#if SPI_MODE==1
 PORTF |=  0x08; PORTF &= ~0x08; //toggle port F bit 3, LCD strobe trigger
    15ea:	80 91 62 00 	lds	r24, 0x0062	; 0x800062 <__TEXT_REGION_LENGTH__+0x7e0062>
    15ee:	88 60       	ori	r24, 0x08	; 8
    15f0:	80 93 62 00 	sts	0x0062, r24	; 0x800062 <__TEXT_REGION_LENGTH__+0x7e0062>
    15f4:	80 91 62 00 	lds	r24, 0x0062	; 0x800062 <__TEXT_REGION_LENGTH__+0x7e0062>
    15f8:	87 7f       	andi	r24, 0xF7	; 247
    15fa:	80 93 62 00 	sts	0x0062, r24	; 0x800062 <__TEXT_REGION_LENGTH__+0x7e0062>
    15fe:	08 95       	ret

00001600 <shift_left>:
// Commnads that require more time have delays built in for them.
//
void send_lcd(uint8_t cmd_or_char, uint8_t byte){

#if SPI_MODE==1
  SPDR = (cmd_or_char)? 0x01 : 0x00;  //send the proper value for intent
    1600:	1f b8       	out	0x0f, r1	; 15
  while (bit_is_clear(SPSR,SPIF)){}   //wait till byte is sent out
    1602:	77 9b       	sbis	0x0e, 7	; 14
    1604:	fe cf       	rjmp	.-4      	; 0x1602 <shift_left+0x2>
  SPDR = byte;                        //send payload
    1606:	88 e1       	ldi	r24, 0x18	; 24
    1608:	8f b9       	out	0x0f, r24	; 15
  while (bit_is_clear(SPSR,SPIF)){}   //wait till byte is sent out
    160a:	77 9b       	sbis	0x0e, 7	; 14
    160c:	fe cf       	rjmp	.-4      	; 0x160a <shift_left+0xa>
//pulse width for a 4 Mhz clock.
//TODO: make number of nops executed dependent on F_CPU, not hardcoded
//
void strobe_lcd(void){ 
#if SPI_MODE==1
 PORTF |=  0x08; PORTF &= ~0x08; //toggle port F bit 3, LCD strobe trigger
    160e:	80 91 62 00 	lds	r24, 0x0062	; 0x800062 <__TEXT_REGION_LENGTH__+0x7e0062>
    1612:	88 60       	ori	r24, 0x08	; 8
    1614:	80 93 62 00 	sts	0x0062, r24	; 0x800062 <__TEXT_REGION_LENGTH__+0x7e0062>
    1618:	80 91 62 00 	lds	r24, 0x0062	; 0x800062 <__TEXT_REGION_LENGTH__+0x7e0062>
    161c:	87 7f       	andi	r24, 0xF7	; 247
    161e:	80 93 62 00 	sts	0x0062, r24	; 0x800062 <__TEXT_REGION_LENGTH__+0x7e0062>
    1622:	08 95       	ret

00001624 <strobe_lcd>:
    1624:	e2 e6       	ldi	r30, 0x62	; 98
    1626:	f0 e0       	ldi	r31, 0x00	; 0
    1628:	80 81       	ld	r24, Z
    162a:	88 60       	ori	r24, 0x08	; 8
    162c:	80 83       	st	Z, r24
    162e:	80 81       	ld	r24, Z
    1630:	87 7f       	andi	r24, 0xF7	; 247
    1632:	80 83       	st	Z, r24
    1634:	08 95       	ret

00001636 <clear_display>:
// Commnads that require more time have delays built in for them.
//
void send_lcd(uint8_t cmd_or_char, uint8_t byte){

#if SPI_MODE==1
  SPDR = (cmd_or_char)? 0x01 : 0x00;  //send the proper value for intent
    1636:	1f b8       	out	0x0f, r1	; 15
  while (bit_is_clear(SPSR,SPIF)){}   //wait till byte is sent out
    1638:	77 9b       	sbis	0x0e, 7	; 14
    163a:	fe cf       	rjmp	.-4      	; 0x1638 <clear_display+0x2>
  SPDR = byte;                        //send payload
    163c:	81 e0       	ldi	r24, 0x01	; 1
    163e:	8f b9       	out	0x0f, r24	; 15
  while (bit_is_clear(SPSR,SPIF)){}   //wait till byte is sent out
    1640:	77 9b       	sbis	0x0e, 7	; 14
    1642:	fe cf       	rjmp	.-4      	; 0x1640 <clear_display+0xa>
//pulse width for a 4 Mhz clock.
//TODO: make number of nops executed dependent on F_CPU, not hardcoded
//
void strobe_lcd(void){ 
#if SPI_MODE==1
 PORTF |=  0x08; PORTF &= ~0x08; //toggle port F bit 3, LCD strobe trigger
    1644:	80 91 62 00 	lds	r24, 0x0062	; 0x800062 <__TEXT_REGION_LENGTH__+0x7e0062>
    1648:	88 60       	ori	r24, 0x08	; 8
    164a:	80 93 62 00 	sts	0x0062, r24	; 0x800062 <__TEXT_REGION_LENGTH__+0x7e0062>
    164e:	80 91 62 00 	lds	r24, 0x0062	; 0x800062 <__TEXT_REGION_LENGTH__+0x7e0062>
    1652:	87 7f       	andi	r24, 0xF7	; 247
    1654:	80 93 62 00 	sts	0x0062, r24	; 0x800062 <__TEXT_REGION_LENGTH__+0x7e0062>
    1658:	8f e1       	ldi	r24, 0x1F	; 31
    165a:	9c e1       	ldi	r25, 0x1C	; 28
    165c:	01 97       	sbiw	r24, 0x01	; 1
    165e:	f1 f7       	brne	.-4      	; 0x165c <clear_display+0x26>
    1660:	00 c0       	rjmp	.+0      	; 0x1662 <clear_display+0x2c>
    1662:	00 00       	nop
    1664:	08 95       	ret

00001666 <cursor_home>:
// Commnads that require more time have delays built in for them.
//
void send_lcd(uint8_t cmd_or_char, uint8_t byte){

#if SPI_MODE==1
  SPDR = (cmd_or_char)? 0x01 : 0x00;  //send the proper value for intent
    1666:	1f b8       	out	0x0f, r1	; 15
  while (bit_is_clear(SPSR,SPIF)){}   //wait till byte is sent out
    1668:	77 9b       	sbis	0x0e, 7	; 14
    166a:	fe cf       	rjmp	.-4      	; 0x1668 <cursor_home+0x2>
  SPDR = byte;                        //send payload
    166c:	82 e0       	ldi	r24, 0x02	; 2
    166e:	8f b9       	out	0x0f, r24	; 15
  while (bit_is_clear(SPSR,SPIF)){}   //wait till byte is sent out
    1670:	77 9b       	sbis	0x0e, 7	; 14
    1672:	fe cf       	rjmp	.-4      	; 0x1670 <cursor_home+0xa>
//pulse width for a 4 Mhz clock.
//TODO: make number of nops executed dependent on F_CPU, not hardcoded
//
void strobe_lcd(void){ 
#if SPI_MODE==1
 PORTF |=  0x08; PORTF &= ~0x08; //toggle port F bit 3, LCD strobe trigger
    1674:	80 91 62 00 	lds	r24, 0x0062	; 0x800062 <__TEXT_REGION_LENGTH__+0x7e0062>
    1678:	88 60       	ori	r24, 0x08	; 8
    167a:	80 93 62 00 	sts	0x0062, r24	; 0x800062 <__TEXT_REGION_LENGTH__+0x7e0062>
    167e:	80 91 62 00 	lds	r24, 0x0062	; 0x800062 <__TEXT_REGION_LENGTH__+0x7e0062>
    1682:	87 7f       	andi	r24, 0xF7	; 247
    1684:	80 93 62 00 	sts	0x0062, r24	; 0x800062 <__TEXT_REGION_LENGTH__+0x7e0062>
    1688:	8f e6       	ldi	r24, 0x6F	; 111
    168a:	97 e1       	ldi	r25, 0x17	; 23
    168c:	01 97       	sbiw	r24, 0x01	; 1
    168e:	f1 f7       	brne	.-4      	; 0x168c <cursor_home+0x26>
    1690:	00 c0       	rjmp	.+0      	; 0x1692 <cursor_home+0x2c>
    1692:	00 00       	nop
    1694:	08 95       	ret

00001696 <line2_col1>:
// Commnads that require more time have delays built in for them.
//
void send_lcd(uint8_t cmd_or_char, uint8_t byte){

#if SPI_MODE==1
  SPDR = (cmd_or_char)? 0x01 : 0x00;  //send the proper value for intent
    1696:	1f b8       	out	0x0f, r1	; 15
  while (bit_is_clear(SPSR,SPIF)){}   //wait till byte is sent out
    1698:	77 9b       	sbis	0x0e, 7	; 14
    169a:	fe cf       	rjmp	.-4      	; 0x1698 <line2_col1+0x2>
  SPDR = byte;                        //send payload
    169c:	80 ec       	ldi	r24, 0xC0	; 192
    169e:	8f b9       	out	0x0f, r24	; 15
  while (bit_is_clear(SPSR,SPIF)){}   //wait till byte is sent out
    16a0:	77 9b       	sbis	0x0e, 7	; 14
    16a2:	fe cf       	rjmp	.-4      	; 0x16a0 <line2_col1+0xa>
//pulse width for a 4 Mhz clock.
//TODO: make number of nops executed dependent on F_CPU, not hardcoded
//
void strobe_lcd(void){ 
#if SPI_MODE==1
 PORTF |=  0x08; PORTF &= ~0x08; //toggle port F bit 3, LCD strobe trigger
    16a4:	80 91 62 00 	lds	r24, 0x0062	; 0x800062 <__TEXT_REGION_LENGTH__+0x7e0062>
    16a8:	88 60       	ori	r24, 0x08	; 8
    16aa:	80 93 62 00 	sts	0x0062, r24	; 0x800062 <__TEXT_REGION_LENGTH__+0x7e0062>
    16ae:	80 91 62 00 	lds	r24, 0x0062	; 0x800062 <__TEXT_REGION_LENGTH__+0x7e0062>
    16b2:	87 7f       	andi	r24, 0xF7	; 247
    16b4:	80 93 62 00 	sts	0x0062, r24	; 0x800062 <__TEXT_REGION_LENGTH__+0x7e0062>
    16b8:	08 95       	ret

000016ba <line1_col1>:
// Commnads that require more time have delays built in for them.
//
void send_lcd(uint8_t cmd_or_char, uint8_t byte){

#if SPI_MODE==1
  SPDR = (cmd_or_char)? 0x01 : 0x00;  //send the proper value for intent
    16ba:	1f b8       	out	0x0f, r1	; 15
  while (bit_is_clear(SPSR,SPIF)){}   //wait till byte is sent out
    16bc:	77 9b       	sbis	0x0e, 7	; 14
    16be:	fe cf       	rjmp	.-4      	; 0x16bc <line1_col1+0x2>
  SPDR = byte;                        //send payload
    16c0:	80 e8       	ldi	r24, 0x80	; 128
    16c2:	8f b9       	out	0x0f, r24	; 15
  while (bit_is_clear(SPSR,SPIF)){}   //wait till byte is sent out
    16c4:	77 9b       	sbis	0x0e, 7	; 14
    16c6:	fe cf       	rjmp	.-4      	; 0x16c4 <line1_col1+0xa>
//pulse width for a 4 Mhz clock.
//TODO: make number of nops executed dependent on F_CPU, not hardcoded
//
void strobe_lcd(void){ 
#if SPI_MODE==1
 PORTF |=  0x08; PORTF &= ~0x08; //toggle port F bit 3, LCD strobe trigger
    16c8:	80 91 62 00 	lds	r24, 0x0062	; 0x800062 <__TEXT_REGION_LENGTH__+0x7e0062>
    16cc:	88 60       	ori	r24, 0x08	; 8
    16ce:	80 93 62 00 	sts	0x0062, r24	; 0x800062 <__TEXT_REGION_LENGTH__+0x7e0062>
    16d2:	80 91 62 00 	lds	r24, 0x0062	; 0x800062 <__TEXT_REGION_LENGTH__+0x7e0062>
    16d6:	87 7f       	andi	r24, 0xF7	; 247
    16d8:	80 93 62 00 	sts	0x0062, r24	; 0x800062 <__TEXT_REGION_LENGTH__+0x7e0062>
    16dc:	08 95       	ret

000016de <fill_spaces>:

//-----------------------------------------------------------------------------
//                          fill_spaces   
//
//Fill an entire line with spaces.
void fill_spaces(void){
    16de:	90 e1       	ldi	r25, 0x10	; 16
// Commnads that require more time have delays built in for them.
//
void send_lcd(uint8_t cmd_or_char, uint8_t byte){

#if SPI_MODE==1
  SPDR = (cmd_or_char)? 0x01 : 0x00;  //send the proper value for intent
    16e0:	31 e0       	ldi	r19, 0x01	; 1
  while (bit_is_clear(SPSR,SPIF)){}   //wait till byte is sent out
  SPDR = byte;                        //send payload
    16e2:	20 e2       	ldi	r18, 0x20	; 32
// Commnads that require more time have delays built in for them.
//
void send_lcd(uint8_t cmd_or_char, uint8_t byte){

#if SPI_MODE==1
  SPDR = (cmd_or_char)? 0x01 : 0x00;  //send the proper value for intent
    16e4:	3f b9       	out	0x0f, r19	; 15
  while (bit_is_clear(SPSR,SPIF)){}   //wait till byte is sent out
    16e6:	77 9b       	sbis	0x0e, 7	; 14
    16e8:	fe cf       	rjmp	.-4      	; 0x16e6 <fill_spaces+0x8>
  SPDR = byte;                        //send payload
    16ea:	2f b9       	out	0x0f, r18	; 15
  while (bit_is_clear(SPSR,SPIF)){}   //wait till byte is sent out
    16ec:	77 9b       	sbis	0x0e, 7	; 14
    16ee:	fe cf       	rjmp	.-4      	; 0x16ec <fill_spaces+0xe>
//pulse width for a 4 Mhz clock.
//TODO: make number of nops executed dependent on F_CPU, not hardcoded
//
void strobe_lcd(void){ 
#if SPI_MODE==1
 PORTF |=  0x08; PORTF &= ~0x08; //toggle port F bit 3, LCD strobe trigger
    16f0:	80 91 62 00 	lds	r24, 0x0062	; 0x800062 <__TEXT_REGION_LENGTH__+0x7e0062>
    16f4:	88 60       	ori	r24, 0x08	; 8
    16f6:	80 93 62 00 	sts	0x0062, r24	; 0x800062 <__TEXT_REGION_LENGTH__+0x7e0062>
    16fa:	80 91 62 00 	lds	r24, 0x0062	; 0x800062 <__TEXT_REGION_LENGTH__+0x7e0062>
    16fe:	87 7f       	andi	r24, 0xF7	; 247
    1700:	80 93 62 00 	sts	0x0062, r24	; 0x800062 <__TEXT_REGION_LENGTH__+0x7e0062>
    1704:	85 ed       	ldi	r24, 0xD5	; 213
    1706:	8a 95       	dec	r24
    1708:	f1 f7       	brne	.-4      	; 0x1706 <fill_spaces+0x28>
    170a:	00 00       	nop
    170c:	91 50       	subi	r25, 0x01	; 1
//                          fill_spaces   
//
//Fill an entire line with spaces.
void fill_spaces(void){
	uint8_t i;
	for (i=0; i<=(NUM_LCD_CHARS-1); i++){
    170e:	51 f7       	brne	.-44     	; 0x16e4 <fill_spaces+0x6>
		send_lcd(CHAR_BYTE, ' '); 
                _delay_us(40);  //40us wait between characters
	}
}  
    1710:	08 95       	ret

00001712 <char2lcd>:
// Commnads that require more time have delays built in for them.
//
void send_lcd(uint8_t cmd_or_char, uint8_t byte){

#if SPI_MODE==1
  SPDR = (cmd_or_char)? 0x01 : 0x00;  //send the proper value for intent
    1712:	91 e0       	ldi	r25, 0x01	; 1
    1714:	9f b9       	out	0x0f, r25	; 15
  while (bit_is_clear(SPSR,SPIF)){}   //wait till byte is sent out
    1716:	77 9b       	sbis	0x0e, 7	; 14
    1718:	fe cf       	rjmp	.-4      	; 0x1716 <char2lcd+0x4>
  SPDR = byte;                        //send payload
    171a:	8f b9       	out	0x0f, r24	; 15
  while (bit_is_clear(SPSR,SPIF)){}   //wait till byte is sent out
    171c:	77 9b       	sbis	0x0e, 7	; 14
    171e:	fe cf       	rjmp	.-4      	; 0x171c <char2lcd+0xa>
//pulse width for a 4 Mhz clock.
//TODO: make number of nops executed dependent on F_CPU, not hardcoded
//
void strobe_lcd(void){ 
#if SPI_MODE==1
 PORTF |=  0x08; PORTF &= ~0x08; //toggle port F bit 3, LCD strobe trigger
    1720:	80 91 62 00 	lds	r24, 0x0062	; 0x800062 <__TEXT_REGION_LENGTH__+0x7e0062>
    1724:	88 60       	ori	r24, 0x08	; 8
    1726:	80 93 62 00 	sts	0x0062, r24	; 0x800062 <__TEXT_REGION_LENGTH__+0x7e0062>
    172a:	80 91 62 00 	lds	r24, 0x0062	; 0x800062 <__TEXT_REGION_LENGTH__+0x7e0062>
    172e:	87 7f       	andi	r24, 0xF7	; 247
    1730:	80 93 62 00 	sts	0x0062, r24	; 0x800062 <__TEXT_REGION_LENGTH__+0x7e0062>
    1734:	08 95       	ret

00001736 <string2lcd>:

//----------------------------------------------------------------------------
//                            string2lcd
//                            
//Send a ascii string to the LCD.
void string2lcd(char *lcd_str){ 
    1736:	fc 01       	movw	r30, r24
  uint8_t i;
  for (i=0; i<=(strlen(lcd_str)-1); i++){send_lcd(CHAR_BYTE, lcd_str[i]);
    1738:	40 e0       	ldi	r20, 0x00	; 0
    173a:	50 e0       	ldi	r21, 0x00	; 0
    173c:	60 e0       	ldi	r22, 0x00	; 0
// Commnads that require more time have delays built in for them.
//
void send_lcd(uint8_t cmd_or_char, uint8_t byte){

#if SPI_MODE==1
  SPDR = (cmd_or_char)? 0x01 : 0x00;  //send the proper value for intent
    173e:	71 e0       	ldi	r23, 0x01	; 1
//                            string2lcd
//                            
//Send a ascii string to the LCD.
void string2lcd(char *lcd_str){ 
  uint8_t i;
  for (i=0; i<=(strlen(lcd_str)-1); i++){send_lcd(CHAR_BYTE, lcd_str[i]);
    1740:	df 01       	movw	r26, r30
    1742:	a4 0f       	add	r26, r20
    1744:	b5 1f       	adc	r27, r21
    1746:	8c 91       	ld	r24, X
// Commnads that require more time have delays built in for them.
//
void send_lcd(uint8_t cmd_or_char, uint8_t byte){

#if SPI_MODE==1
  SPDR = (cmd_or_char)? 0x01 : 0x00;  //send the proper value for intent
    1748:	7f b9       	out	0x0f, r23	; 15
  while (bit_is_clear(SPSR,SPIF)){}   //wait till byte is sent out
    174a:	77 9b       	sbis	0x0e, 7	; 14
    174c:	fe cf       	rjmp	.-4      	; 0x174a <string2lcd+0x14>
  SPDR = byte;                        //send payload
    174e:	8f b9       	out	0x0f, r24	; 15
  while (bit_is_clear(SPSR,SPIF)){}   //wait till byte is sent out
    1750:	77 9b       	sbis	0x0e, 7	; 14
    1752:	fe cf       	rjmp	.-4      	; 0x1750 <string2lcd+0x1a>
//pulse width for a 4 Mhz clock.
//TODO: make number of nops executed dependent on F_CPU, not hardcoded
//
void strobe_lcd(void){ 
#if SPI_MODE==1
 PORTF |=  0x08; PORTF &= ~0x08; //toggle port F bit 3, LCD strobe trigger
    1754:	90 91 62 00 	lds	r25, 0x0062	; 0x800062 <__TEXT_REGION_LENGTH__+0x7e0062>
    1758:	98 60       	ori	r25, 0x08	; 8
    175a:	90 93 62 00 	sts	0x0062, r25	; 0x800062 <__TEXT_REGION_LENGTH__+0x7e0062>
    175e:	90 91 62 00 	lds	r25, 0x0062	; 0x800062 <__TEXT_REGION_LENGTH__+0x7e0062>
    1762:	97 7f       	andi	r25, 0xF7	; 247
    1764:	90 93 62 00 	sts	0x0062, r25	; 0x800062 <__TEXT_REGION_LENGTH__+0x7e0062>
    1768:	85 ed       	ldi	r24, 0xD5	; 213
    176a:	8a 95       	dec	r24
    176c:	f1 f7       	brne	.-4      	; 0x176a <string2lcd+0x34>
    176e:	00 00       	nop
//                            string2lcd
//                            
//Send a ascii string to the LCD.
void string2lcd(char *lcd_str){ 
  uint8_t i;
  for (i=0; i<=(strlen(lcd_str)-1); i++){send_lcd(CHAR_BYTE, lcd_str[i]);
    1770:	6f 5f       	subi	r22, 0xFF	; 255
    1772:	46 2f       	mov	r20, r22
    1774:	50 e0       	ldi	r21, 0x00	; 0
    1776:	df 01       	movw	r26, r30
    1778:	0d 90       	ld	r0, X+
    177a:	00 20       	and	r0, r0
    177c:	e9 f7       	brne	.-6      	; 0x1778 <string2lcd+0x42>
    177e:	9d 01       	movw	r18, r26
    1780:	2e 1b       	sub	r18, r30
    1782:	3f 0b       	sbc	r19, r31
    1784:	22 50       	subi	r18, 0x02	; 2
    1786:	31 09       	sbc	r19, r1
    1788:	24 17       	cp	r18, r20
    178a:	35 07       	cpc	r19, r21
    178c:	c8 f6       	brcc	.-78     	; 0x1740 <string2lcd+0xa>
  _delay_us(40);  //execution takes 37us per character
  }                  
} 
    178e:	08 95       	ret

00001790 <lcd_init>:
	#else
		//round up by default
		__ticks_dc = (uint32_t)(ceil(fabs(__tmp)));
	#endif

	__builtin_avr_delay_cycles(__ticks_dc);
    1790:	8f ef       	ldi	r24, 0xFF	; 255
    1792:	99 ef       	ldi	r25, 0xF9	; 249
    1794:	01 97       	sbiw	r24, 0x01	; 1
    1796:	f1 f7       	brne	.-4      	; 0x1794 <lcd_init+0x4>
    1798:	00 c0       	rjmp	.+0      	; 0x179a <lcd_init+0xa>
    179a:	00 00       	nop
//
void lcd_init(void){
  _delay_ms(16);      //power up delay
#if SPI_MODE==1       //assumption is that the SPI port is intialized
  //TODO: kludge alert! setting of DDRF should not be here, but is probably harmless.
  DDRF=0x08;          //port F bit 3 is enable for LCD in SPI mode
    179c:	88 e0       	ldi	r24, 0x08	; 8
    179e:	80 93 61 00 	sts	0x0061, r24	; 0x800061 <__TEXT_REGION_LENGTH__+0x7e0061>
// Commnads that require more time have delays built in for them.
//
void send_lcd(uint8_t cmd_or_char, uint8_t byte){

#if SPI_MODE==1
  SPDR = (cmd_or_char)? 0x01 : 0x00;  //send the proper value for intent
    17a2:	1f b8       	out	0x0f, r1	; 15
  while (bit_is_clear(SPSR,SPIF)){}   //wait till byte is sent out
    17a4:	77 9b       	sbis	0x0e, 7	; 14
    17a6:	fe cf       	rjmp	.-4      	; 0x17a4 <lcd_init+0x14>
  SPDR = byte;                        //send payload
    17a8:	80 e3       	ldi	r24, 0x30	; 48
    17aa:	8f b9       	out	0x0f, r24	; 15
  while (bit_is_clear(SPSR,SPIF)){}   //wait till byte is sent out
    17ac:	77 9b       	sbis	0x0e, 7	; 14
    17ae:	fe cf       	rjmp	.-4      	; 0x17ac <lcd_init+0x1c>
//pulse width for a 4 Mhz clock.
//TODO: make number of nops executed dependent on F_CPU, not hardcoded
//
void strobe_lcd(void){ 
#if SPI_MODE==1
 PORTF |=  0x08; PORTF &= ~0x08; //toggle port F bit 3, LCD strobe trigger
    17b0:	80 91 62 00 	lds	r24, 0x0062	; 0x800062 <__TEXT_REGION_LENGTH__+0x7e0062>
    17b4:	88 60       	ori	r24, 0x08	; 8
    17b6:	80 93 62 00 	sts	0x0062, r24	; 0x800062 <__TEXT_REGION_LENGTH__+0x7e0062>
    17ba:	80 91 62 00 	lds	r24, 0x0062	; 0x800062 <__TEXT_REGION_LENGTH__+0x7e0062>
    17be:	87 7f       	andi	r24, 0xF7	; 247
    17c0:	80 93 62 00 	sts	0x0062, r24	; 0x800062 <__TEXT_REGION_LENGTH__+0x7e0062>
    17c4:	8f e5       	ldi	r24, 0x5F	; 95
    17c6:	9d e6       	ldi	r25, 0x6D	; 109
    17c8:	01 97       	sbiw	r24, 0x01	; 1
    17ca:	f1 f7       	brne	.-4      	; 0x17c8 <lcd_init+0x38>
    17cc:	00 c0       	rjmp	.+0      	; 0x17ce <lcd_init+0x3e>
    17ce:	00 00       	nop
// Commnads that require more time have delays built in for them.
//
void send_lcd(uint8_t cmd_or_char, uint8_t byte){

#if SPI_MODE==1
  SPDR = (cmd_or_char)? 0x01 : 0x00;  //send the proper value for intent
    17d0:	1f b8       	out	0x0f, r1	; 15
  while (bit_is_clear(SPSR,SPIF)){}   //wait till byte is sent out
    17d2:	77 9b       	sbis	0x0e, 7	; 14
    17d4:	fe cf       	rjmp	.-4      	; 0x17d2 <lcd_init+0x42>
  SPDR = byte;                        //send payload
    17d6:	80 e3       	ldi	r24, 0x30	; 48
    17d8:	8f b9       	out	0x0f, r24	; 15
  while (bit_is_clear(SPSR,SPIF)){}   //wait till byte is sent out
    17da:	77 9b       	sbis	0x0e, 7	; 14
    17dc:	fe cf       	rjmp	.-4      	; 0x17da <lcd_init+0x4a>
//pulse width for a 4 Mhz clock.
//TODO: make number of nops executed dependent on F_CPU, not hardcoded
//
void strobe_lcd(void){ 
#if SPI_MODE==1
 PORTF |=  0x08; PORTF &= ~0x08; //toggle port F bit 3, LCD strobe trigger
    17de:	80 91 62 00 	lds	r24, 0x0062	; 0x800062 <__TEXT_REGION_LENGTH__+0x7e0062>
    17e2:	88 60       	ori	r24, 0x08	; 8
    17e4:	80 93 62 00 	sts	0x0062, r24	; 0x800062 <__TEXT_REGION_LENGTH__+0x7e0062>
    17e8:	80 91 62 00 	lds	r24, 0x0062	; 0x800062 <__TEXT_REGION_LENGTH__+0x7e0062>
    17ec:	87 7f       	andi	r24, 0xF7	; 247
    17ee:	80 93 62 00 	sts	0x0062, r24	; 0x800062 <__TEXT_REGION_LENGTH__+0x7e0062>
    17f2:	8f e5       	ldi	r24, 0x5F	; 95
    17f4:	9d e6       	ldi	r25, 0x6D	; 109
    17f6:	01 97       	sbiw	r24, 0x01	; 1
    17f8:	f1 f7       	brne	.-4      	; 0x17f6 <lcd_init+0x66>
    17fa:	00 c0       	rjmp	.+0      	; 0x17fc <lcd_init+0x6c>
    17fc:	00 00       	nop
// Commnads that require more time have delays built in for them.
//
void send_lcd(uint8_t cmd_or_char, uint8_t byte){

#if SPI_MODE==1
  SPDR = (cmd_or_char)? 0x01 : 0x00;  //send the proper value for intent
    17fe:	1f b8       	out	0x0f, r1	; 15
  while (bit_is_clear(SPSR,SPIF)){}   //wait till byte is sent out
    1800:	77 9b       	sbis	0x0e, 7	; 14
    1802:	fe cf       	rjmp	.-4      	; 0x1800 <lcd_init+0x70>
  SPDR = byte;                        //send payload
    1804:	80 e3       	ldi	r24, 0x30	; 48
    1806:	8f b9       	out	0x0f, r24	; 15
  while (bit_is_clear(SPSR,SPIF)){}   //wait till byte is sent out
    1808:	77 9b       	sbis	0x0e, 7	; 14
    180a:	fe cf       	rjmp	.-4      	; 0x1808 <lcd_init+0x78>
//pulse width for a 4 Mhz clock.
//TODO: make number of nops executed dependent on F_CPU, not hardcoded
//
void strobe_lcd(void){ 
#if SPI_MODE==1
 PORTF |=  0x08; PORTF &= ~0x08; //toggle port F bit 3, LCD strobe trigger
    180c:	80 91 62 00 	lds	r24, 0x0062	; 0x800062 <__TEXT_REGION_LENGTH__+0x7e0062>
    1810:	88 60       	ori	r24, 0x08	; 8
    1812:	80 93 62 00 	sts	0x0062, r24	; 0x800062 <__TEXT_REGION_LENGTH__+0x7e0062>
    1816:	80 91 62 00 	lds	r24, 0x0062	; 0x800062 <__TEXT_REGION_LENGTH__+0x7e0062>
    181a:	87 7f       	andi	r24, 0xF7	; 247
    181c:	80 93 62 00 	sts	0x0062, r24	; 0x800062 <__TEXT_REGION_LENGTH__+0x7e0062>
    1820:	8f e5       	ldi	r24, 0x5F	; 95
    1822:	9d e6       	ldi	r25, 0x6D	; 109
    1824:	01 97       	sbiw	r24, 0x01	; 1
    1826:	f1 f7       	brne	.-4      	; 0x1824 <lcd_init+0x94>
    1828:	00 c0       	rjmp	.+0      	; 0x182a <lcd_init+0x9a>
    182a:	00 00       	nop
// Commnads that require more time have delays built in for them.
//
void send_lcd(uint8_t cmd_or_char, uint8_t byte){

#if SPI_MODE==1
  SPDR = (cmd_or_char)? 0x01 : 0x00;  //send the proper value for intent
    182c:	1f b8       	out	0x0f, r1	; 15
  while (bit_is_clear(SPSR,SPIF)){}   //wait till byte is sent out
    182e:	77 9b       	sbis	0x0e, 7	; 14
    1830:	fe cf       	rjmp	.-4      	; 0x182e <lcd_init+0x9e>
  SPDR = byte;                        //send payload
    1832:	88 e3       	ldi	r24, 0x38	; 56
    1834:	8f b9       	out	0x0f, r24	; 15
  while (bit_is_clear(SPSR,SPIF)){}   //wait till byte is sent out
    1836:	77 9b       	sbis	0x0e, 7	; 14
    1838:	fe cf       	rjmp	.-4      	; 0x1836 <lcd_init+0xa6>
//pulse width for a 4 Mhz clock.
//TODO: make number of nops executed dependent on F_CPU, not hardcoded
//
void strobe_lcd(void){ 
#if SPI_MODE==1
 PORTF |=  0x08; PORTF &= ~0x08; //toggle port F bit 3, LCD strobe trigger
    183a:	80 91 62 00 	lds	r24, 0x0062	; 0x800062 <__TEXT_REGION_LENGTH__+0x7e0062>
    183e:	88 60       	ori	r24, 0x08	; 8
    1840:	80 93 62 00 	sts	0x0062, r24	; 0x800062 <__TEXT_REGION_LENGTH__+0x7e0062>
    1844:	80 91 62 00 	lds	r24, 0x0062	; 0x800062 <__TEXT_REGION_LENGTH__+0x7e0062>
    1848:	87 7f       	andi	r24, 0xF7	; 247
    184a:	80 93 62 00 	sts	0x0062, r24	; 0x800062 <__TEXT_REGION_LENGTH__+0x7e0062>
    184e:	8f e1       	ldi	r24, 0x1F	; 31
    1850:	9e e4       	ldi	r25, 0x4E	; 78
    1852:	01 97       	sbiw	r24, 0x01	; 1
    1854:	f1 f7       	brne	.-4      	; 0x1852 <lcd_init+0xc2>
    1856:	00 c0       	rjmp	.+0      	; 0x1858 <lcd_init+0xc8>
    1858:	00 00       	nop
// Commnads that require more time have delays built in for them.
//
void send_lcd(uint8_t cmd_or_char, uint8_t byte){

#if SPI_MODE==1
  SPDR = (cmd_or_char)? 0x01 : 0x00;  //send the proper value for intent
    185a:	1f b8       	out	0x0f, r1	; 15
  while (bit_is_clear(SPSR,SPIF)){}   //wait till byte is sent out
    185c:	77 9b       	sbis	0x0e, 7	; 14
    185e:	fe cf       	rjmp	.-4      	; 0x185c <lcd_init+0xcc>
  SPDR = byte;                        //send payload
    1860:	88 e0       	ldi	r24, 0x08	; 8
    1862:	8f b9       	out	0x0f, r24	; 15
  while (bit_is_clear(SPSR,SPIF)){}   //wait till byte is sent out
    1864:	77 9b       	sbis	0x0e, 7	; 14
    1866:	fe cf       	rjmp	.-4      	; 0x1864 <lcd_init+0xd4>
//pulse width for a 4 Mhz clock.
//TODO: make number of nops executed dependent on F_CPU, not hardcoded
//
void strobe_lcd(void){ 
#if SPI_MODE==1
 PORTF |=  0x08; PORTF &= ~0x08; //toggle port F bit 3, LCD strobe trigger
    1868:	80 91 62 00 	lds	r24, 0x0062	; 0x800062 <__TEXT_REGION_LENGTH__+0x7e0062>
    186c:	88 60       	ori	r24, 0x08	; 8
    186e:	80 93 62 00 	sts	0x0062, r24	; 0x800062 <__TEXT_REGION_LENGTH__+0x7e0062>
    1872:	80 91 62 00 	lds	r24, 0x0062	; 0x800062 <__TEXT_REGION_LENGTH__+0x7e0062>
    1876:	87 7f       	andi	r24, 0xF7	; 247
    1878:	80 93 62 00 	sts	0x0062, r24	; 0x800062 <__TEXT_REGION_LENGTH__+0x7e0062>
    187c:	8f e1       	ldi	r24, 0x1F	; 31
    187e:	9e e4       	ldi	r25, 0x4E	; 78
    1880:	01 97       	sbiw	r24, 0x01	; 1
    1882:	f1 f7       	brne	.-4      	; 0x1880 <lcd_init+0xf0>
    1884:	00 c0       	rjmp	.+0      	; 0x1886 <lcd_init+0xf6>
    1886:	00 00       	nop
// Commnads that require more time have delays built in for them.
//
void send_lcd(uint8_t cmd_or_char, uint8_t byte){

#if SPI_MODE==1
  SPDR = (cmd_or_char)? 0x01 : 0x00;  //send the proper value for intent
    1888:	1f b8       	out	0x0f, r1	; 15
  while (bit_is_clear(SPSR,SPIF)){}   //wait till byte is sent out
    188a:	77 9b       	sbis	0x0e, 7	; 14
    188c:	fe cf       	rjmp	.-4      	; 0x188a <lcd_init+0xfa>
  SPDR = byte;                        //send payload
    188e:	81 e0       	ldi	r24, 0x01	; 1
    1890:	8f b9       	out	0x0f, r24	; 15
  while (bit_is_clear(SPSR,SPIF)){}   //wait till byte is sent out
    1892:	77 9b       	sbis	0x0e, 7	; 14
    1894:	fe cf       	rjmp	.-4      	; 0x1892 <lcd_init+0x102>
//pulse width for a 4 Mhz clock.
//TODO: make number of nops executed dependent on F_CPU, not hardcoded
//
void strobe_lcd(void){ 
#if SPI_MODE==1
 PORTF |=  0x08; PORTF &= ~0x08; //toggle port F bit 3, LCD strobe trigger
    1896:	80 91 62 00 	lds	r24, 0x0062	; 0x800062 <__TEXT_REGION_LENGTH__+0x7e0062>
    189a:	88 60       	ori	r24, 0x08	; 8
    189c:	80 93 62 00 	sts	0x0062, r24	; 0x800062 <__TEXT_REGION_LENGTH__+0x7e0062>
    18a0:	80 91 62 00 	lds	r24, 0x0062	; 0x800062 <__TEXT_REGION_LENGTH__+0x7e0062>
    18a4:	87 7f       	andi	r24, 0xF7	; 247
    18a6:	80 93 62 00 	sts	0x0062, r24	; 0x800062 <__TEXT_REGION_LENGTH__+0x7e0062>
    18aa:	8f e1       	ldi	r24, 0x1F	; 31
    18ac:	9e e4       	ldi	r25, 0x4E	; 78
    18ae:	01 97       	sbiw	r24, 0x01	; 1
    18b0:	f1 f7       	brne	.-4      	; 0x18ae <lcd_init+0x11e>
    18b2:	00 c0       	rjmp	.+0      	; 0x18b4 <lcd_init+0x124>
    18b4:	00 00       	nop
// Commnads that require more time have delays built in for them.
//
void send_lcd(uint8_t cmd_or_char, uint8_t byte){

#if SPI_MODE==1
  SPDR = (cmd_or_char)? 0x01 : 0x00;  //send the proper value for intent
    18b6:	1f b8       	out	0x0f, r1	; 15
  while (bit_is_clear(SPSR,SPIF)){}   //wait till byte is sent out
    18b8:	77 9b       	sbis	0x0e, 7	; 14
    18ba:	fe cf       	rjmp	.-4      	; 0x18b8 <lcd_init+0x128>
  SPDR = byte;                        //send payload
    18bc:	86 e0       	ldi	r24, 0x06	; 6
    18be:	8f b9       	out	0x0f, r24	; 15
  while (bit_is_clear(SPSR,SPIF)){}   //wait till byte is sent out
    18c0:	77 9b       	sbis	0x0e, 7	; 14
    18c2:	fe cf       	rjmp	.-4      	; 0x18c0 <lcd_init+0x130>
//pulse width for a 4 Mhz clock.
//TODO: make number of nops executed dependent on F_CPU, not hardcoded
//
void strobe_lcd(void){ 
#if SPI_MODE==1
 PORTF |=  0x08; PORTF &= ~0x08; //toggle port F bit 3, LCD strobe trigger
    18c4:	80 91 62 00 	lds	r24, 0x0062	; 0x800062 <__TEXT_REGION_LENGTH__+0x7e0062>
    18c8:	88 60       	ori	r24, 0x08	; 8
    18ca:	80 93 62 00 	sts	0x0062, r24	; 0x800062 <__TEXT_REGION_LENGTH__+0x7e0062>
    18ce:	80 91 62 00 	lds	r24, 0x0062	; 0x800062 <__TEXT_REGION_LENGTH__+0x7e0062>
    18d2:	87 7f       	andi	r24, 0xF7	; 247
    18d4:	80 93 62 00 	sts	0x0062, r24	; 0x800062 <__TEXT_REGION_LENGTH__+0x7e0062>
    18d8:	8f e1       	ldi	r24, 0x1F	; 31
    18da:	9e e4       	ldi	r25, 0x4E	; 78
    18dc:	01 97       	sbiw	r24, 0x01	; 1
    18de:	f1 f7       	brne	.-4      	; 0x18dc <lcd_init+0x14c>
    18e0:	00 c0       	rjmp	.+0      	; 0x18e2 <lcd_init+0x152>
    18e2:	00 00       	nop
// Commnads that require more time have delays built in for them.
//
void send_lcd(uint8_t cmd_or_char, uint8_t byte){

#if SPI_MODE==1
  SPDR = (cmd_or_char)? 0x01 : 0x00;  //send the proper value for intent
    18e4:	1f b8       	out	0x0f, r1	; 15
  while (bit_is_clear(SPSR,SPIF)){}   //wait till byte is sent out
    18e6:	77 9b       	sbis	0x0e, 7	; 14
    18e8:	fe cf       	rjmp	.-4      	; 0x18e6 <lcd_init+0x156>
  SPDR = byte;                        //send payload
    18ea:	8c e0       	ldi	r24, 0x0C	; 12
    18ec:	8f b9       	out	0x0f, r24	; 15
  while (bit_is_clear(SPSR,SPIF)){}   //wait till byte is sent out
    18ee:	77 9b       	sbis	0x0e, 7	; 14
    18f0:	fe cf       	rjmp	.-4      	; 0x18ee <lcd_init+0x15e>
//pulse width for a 4 Mhz clock.
//TODO: make number of nops executed dependent on F_CPU, not hardcoded
//
void strobe_lcd(void){ 
#if SPI_MODE==1
 PORTF |=  0x08; PORTF &= ~0x08; //toggle port F bit 3, LCD strobe trigger
    18f2:	80 91 62 00 	lds	r24, 0x0062	; 0x800062 <__TEXT_REGION_LENGTH__+0x7e0062>
    18f6:	88 60       	ori	r24, 0x08	; 8
    18f8:	80 93 62 00 	sts	0x0062, r24	; 0x800062 <__TEXT_REGION_LENGTH__+0x7e0062>
    18fc:	80 91 62 00 	lds	r24, 0x0062	; 0x800062 <__TEXT_REGION_LENGTH__+0x7e0062>
    1900:	87 7f       	andi	r24, 0xF7	; 247
    1902:	80 93 62 00 	sts	0x0062, r24	; 0x800062 <__TEXT_REGION_LENGTH__+0x7e0062>
    1906:	8f e1       	ldi	r24, 0x1F	; 31
    1908:	9e e4       	ldi	r25, 0x4E	; 78
    190a:	01 97       	sbiw	r24, 0x01	; 1
    190c:	f1 f7       	brne	.-4      	; 0x190a <lcd_init+0x17a>
    190e:	00 c0       	rjmp	.+0      	; 0x1910 <lcd_init+0x180>
    1910:	00 00       	nop
    1912:	08 95       	ret

00001914 <lcd_int32>:
void  lcd_int32(int32_t l,          //number to display
                uint8_t fieldwidth, //width of the field for display
                uint8_t decpos,     //0 if no decimal point, otherwise
                uint8_t bSigned,    //non-zero if the number should be treated as signed 
                uint8_t bZeroFill)  //non-zero if a specified fieldwidth is to be zero filled
{
    1914:	4f 92       	push	r4
    1916:	5f 92       	push	r5
    1918:	6f 92       	push	r6
    191a:	7f 92       	push	r7
    191c:	8f 92       	push	r8
    191e:	9f 92       	push	r9
    1920:	af 92       	push	r10
    1922:	bf 92       	push	r11
    1924:	cf 92       	push	r12
    1926:	df 92       	push	r13
    1928:	ef 92       	push	r14
    192a:	ff 92       	push	r15
    192c:	0f 93       	push	r16
    192e:	1f 93       	push	r17
    1930:	cf 93       	push	r28
    1932:	df 93       	push	r29
    1934:	cd b7       	in	r28, 0x3d	; 61
    1936:	de b7       	in	r29, 0x3e	; 62
    1938:	69 97       	sbiw	r28, 0x19	; 25
    193a:	0f b6       	in	r0, 0x3f	; 63
    193c:	f8 94       	cli
    193e:	de bf       	out	0x3e, r29	; 62
    1940:	0f be       	out	0x3f, r0	; 63
    1942:	cd bf       	out	0x3d, r28	; 61
    1944:	14 2f       	mov	r17, r20
    1946:	42 2e       	mov	r4, r18
    1948:	5e 2c       	mov	r5, r14
      char    fillch;
      ldiv_t  qr;

      qr.quot = l; // initialize the quotient 

      if (bSigned){
    194a:	00 23       	and	r16, r16
    194c:	79 f0       	breq	.+30     	; 0x196c <lcd_int32+0x58>
        bSigned = (qr.quot<0);
    194e:	6b 01       	movw	r12, r22
    1950:	7c 01       	movw	r14, r24
    1952:	cc 24       	eor	r12, r12
    1954:	f7 fc       	sbrc	r15, 7
    1956:	c3 94       	inc	r12
    1958:	dd 24       	eor	r13, r13
    195a:	ee 24       	eor	r14, r14
    195c:	ff 24       	eor	r15, r15
    195e:	0c 2d       	mov	r16, r12
        qr.quot = labs(qr.quot);
    1960:	6b 01       	movw	r12, r22
    1962:	7c 01       	movw	r14, r24
    1964:	97 fd       	sbrc	r25, 7
    1966:	a3 c0       	rjmp	.+326    	; 0x1aae <lcd_int32+0x19a>
    1968:	c7 01       	movw	r24, r14
    196a:	b6 01       	movw	r22, r12
      }

      // convert the digits to the right of the decimal point 
      if (decpos){
    196c:	44 20       	and	r4, r4
    196e:	09 f4       	brne	.+2      	; 0x1972 <lcd_int32+0x5e>
    1970:	96 c0       	rjmp	.+300    	; 0x1a9e <lcd_int32+0x18a>
    1972:	9e 01       	movw	r18, r28
    1974:	2f 5f       	subi	r18, 0xFF	; 255
    1976:	3f 4f       	sbci	r19, 0xFF	; 255
    1978:	59 01       	movw	r10, r18
    197a:	49 01       	movw	r8, r18
    197c:	66 24       	eor	r6, r6
    197e:	6a 94       	dec	r6
    1980:	64 0c       	add	r6, r4
    1982:	71 2c       	mov	r7, r1
    1984:	3f ef       	ldi	r19, 0xFF	; 255
    1986:	63 1a       	sub	r6, r19
    1988:	73 0a       	sbc	r7, r19
    198a:	6a 0c       	add	r6, r10
    198c:	7b 1c       	adc	r7, r11
        for (; decpos ; decpos--){
          qr = ldiv(qr.quot, 10);
    198e:	2a e0       	ldi	r18, 0x0A	; 10
    1990:	30 e0       	ldi	r19, 0x00	; 0
    1992:	40 e0       	ldi	r20, 0x00	; 0
    1994:	50 e0       	ldi	r21, 0x00	; 0
    1996:	0e 94 b6 10 	call	0x216c	; 0x216c <__divmodsi4>
    199a:	e6 2f       	mov	r30, r22
    199c:	2a 8b       	std	Y+18, r18	; 0x12
    199e:	3b 8b       	std	Y+19, r19	; 0x13
    19a0:	4c 8b       	std	Y+20, r20	; 0x14
    19a2:	5d 8b       	std	Y+21, r21	; 0x15
    19a4:	6a 89       	ldd	r22, Y+18	; 0x12
    19a6:	7b 89       	ldd	r23, Y+19	; 0x13
    19a8:	8c 89       	ldd	r24, Y+20	; 0x14
    19aa:	9d 89       	ldd	r25, Y+21	; 0x15
          sline[i++] = qr.rem + '0';
    19ac:	20 e3       	ldi	r18, 0x30	; 48
    19ae:	2e 0f       	add	r18, r30
    19b0:	f4 01       	movw	r30, r8
    19b2:	21 93       	st	Z+, r18
    19b4:	4f 01       	movw	r8, r30
        qr.quot = labs(qr.quot);
      }

      // convert the digits to the right of the decimal point 
      if (decpos){
        for (; decpos ; decpos--){
    19b6:	6e 16       	cp	r6, r30
    19b8:	7f 06       	cpc	r7, r31
    19ba:	49 f7       	brne	.-46     	; 0x198e <lcd_int32+0x7a>
          qr = ldiv(qr.quot, 10);
          sline[i++] = qr.rem + '0';
        }
        sline[i++] = '.';
    19bc:	99 24       	eor	r9, r9
    19be:	93 94       	inc	r9
    19c0:	94 0c       	add	r9, r4
    19c2:	f5 01       	movw	r30, r10
    19c4:	e4 0d       	add	r30, r4
    19c6:	f1 1d       	adc	r31, r1
    19c8:	2e e2       	ldi	r18, 0x2E	; 46
    19ca:	20 83       	st	Z, r18
      }

      // convert the digits to the left of the decimal point 
      do{
          qr = ldiv(qr.quot, 10);
    19cc:	2a e0       	ldi	r18, 0x0A	; 10
    19ce:	30 e0       	ldi	r19, 0x00	; 0
    19d0:	40 e0       	ldi	r20, 0x00	; 0
    19d2:	50 e0       	ldi	r21, 0x00	; 0
    19d4:	0e 94 b6 10 	call	0x216c	; 0x216c <__divmodsi4>
    19d8:	e6 2f       	mov	r30, r22
    19da:	2a 8b       	std	Y+18, r18	; 0x12
    19dc:	3b 8b       	std	Y+19, r19	; 0x13
    19de:	4c 8b       	std	Y+20, r20	; 0x14
    19e0:	5d 8b       	std	Y+21, r21	; 0x15
    19e2:	6e 8b       	std	Y+22, r22	; 0x16
    19e4:	7f 8b       	std	Y+23, r23	; 0x17
    19e6:	88 8f       	std	Y+24, r24	; 0x18
    19e8:	99 8f       	std	Y+25, r25	; 0x19
    19ea:	6a 89       	ldd	r22, Y+18	; 0x12
    19ec:	7b 89       	ldd	r23, Y+19	; 0x13
    19ee:	8c 89       	ldd	r24, Y+20	; 0x14
    19f0:	9d 89       	ldd	r25, Y+21	; 0x15
          sline[i++] = qr.rem + '0';
    19f2:	31 e0       	ldi	r19, 0x01	; 1
    19f4:	39 0d       	add	r19, r9
    19f6:	d5 01       	movw	r26, r10
    19f8:	a9 0d       	add	r26, r9
    19fa:	b1 1d       	adc	r27, r1
    19fc:	e0 5d       	subi	r30, 0xD0	; 208
    19fe:	ec 93       	st	X, r30
    1a00:	93 2e       	mov	r9, r19
        }while(qr.quot);
    1a02:	61 15       	cp	r22, r1
    1a04:	71 05       	cpc	r23, r1
    1a06:	81 05       	cpc	r24, r1
    1a08:	91 05       	cpc	r25, r1
    1a0a:	01 f7       	brne	.-64     	; 0x19cc <lcd_int32+0xb8>

      // fill the whole field if a width was specified
      if (fieldwidth){
    1a0c:	11 23       	and	r17, r17
    1a0e:	61 f0       	breq	.+24     	; 0x1a28 <lcd_int32+0x114>
        fillch = bZeroFill? '0': ' '; // determine the fill character
    1a10:	51 10       	cpse	r5, r1
    1a12:	4b c0       	rjmp	.+150    	; 0x1aaa <lcd_int32+0x196>
    1a14:	90 e2       	ldi	r25, 0x20	; 32
        for (; i<fieldwidth ; ){sline[i++] = fillch;}
    1a16:	31 17       	cp	r19, r17
    1a18:	38 f4       	brcc	.+14     	; 0x1a28 <lcd_int32+0x114>
    1a1a:	f5 01       	movw	r30, r10
    1a1c:	e3 0f       	add	r30, r19
    1a1e:	f1 1d       	adc	r31, r1
    1a20:	90 83       	st	Z, r25
    1a22:	3f 5f       	subi	r19, 0xFF	; 255
    1a24:	13 13       	cpse	r17, r19
    1a26:	f9 cf       	rjmp	.-14     	; 0x1a1a <lcd_int32+0x106>
      }

      // output the sign, if we need to
      if (bSigned){sline[i++] = '-';}
    1a28:	00 23       	and	r16, r16
    1a2a:	31 f0       	breq	.+12     	; 0x1a38 <lcd_int32+0x124>
    1a2c:	f5 01       	movw	r30, r10
    1a2e:	e3 0f       	add	r30, r19
    1a30:	f1 1d       	adc	r31, r1
    1a32:	9d e2       	ldi	r25, 0x2D	; 45
    1a34:	90 83       	st	Z, r25
    1a36:	3f 5f       	subi	r19, 0xFF	; 255
// Commnads that require more time have delays built in for them.
//
void send_lcd(uint8_t cmd_or_char, uint8_t byte){

#if SPI_MODE==1
  SPDR = (cmd_or_char)? 0x01 : 0x00;  //send the proper value for intent
    1a38:	21 e0       	ldi	r18, 0x01	; 1

      // output the sign, if we need to
      if (bSigned){sline[i++] = '-';}

      // now output the formatted number
      do{send_lcd(CHAR_BYTE, sline[--i]); _delay_us(40);} while(i);
    1a3a:	31 50       	subi	r19, 0x01	; 1
    1a3c:	f5 01       	movw	r30, r10
    1a3e:	e3 0f       	add	r30, r19
    1a40:	f1 1d       	adc	r31, r1
    1a42:	90 81       	ld	r25, Z
// Commnads that require more time have delays built in for them.
//
void send_lcd(uint8_t cmd_or_char, uint8_t byte){

#if SPI_MODE==1
  SPDR = (cmd_or_char)? 0x01 : 0x00;  //send the proper value for intent
    1a44:	2f b9       	out	0x0f, r18	; 15
  while (bit_is_clear(SPSR,SPIF)){}   //wait till byte is sent out
    1a46:	77 9b       	sbis	0x0e, 7	; 14
    1a48:	fe cf       	rjmp	.-4      	; 0x1a46 <lcd_int32+0x132>
  SPDR = byte;                        //send payload
    1a4a:	9f b9       	out	0x0f, r25	; 15
  while (bit_is_clear(SPSR,SPIF)){}   //wait till byte is sent out
    1a4c:	77 9b       	sbis	0x0e, 7	; 14
    1a4e:	fe cf       	rjmp	.-4      	; 0x1a4c <lcd_int32+0x138>
//pulse width for a 4 Mhz clock.
//TODO: make number of nops executed dependent on F_CPU, not hardcoded
//
void strobe_lcd(void){ 
#if SPI_MODE==1
 PORTF |=  0x08; PORTF &= ~0x08; //toggle port F bit 3, LCD strobe trigger
    1a50:	90 91 62 00 	lds	r25, 0x0062	; 0x800062 <__TEXT_REGION_LENGTH__+0x7e0062>
    1a54:	98 60       	ori	r25, 0x08	; 8
    1a56:	90 93 62 00 	sts	0x0062, r25	; 0x800062 <__TEXT_REGION_LENGTH__+0x7e0062>
    1a5a:	90 91 62 00 	lds	r25, 0x0062	; 0x800062 <__TEXT_REGION_LENGTH__+0x7e0062>
    1a5e:	97 7f       	andi	r25, 0xF7	; 247
    1a60:	90 93 62 00 	sts	0x0062, r25	; 0x800062 <__TEXT_REGION_LENGTH__+0x7e0062>
	#else
		//round up by default
		__ticks_dc = (uint32_t)(ceil(fabs(__tmp)));
	#endif

	__builtin_avr_delay_cycles(__ticks_dc);
    1a64:	85 ed       	ldi	r24, 0xD5	; 213
    1a66:	8a 95       	dec	r24
    1a68:	f1 f7       	brne	.-4      	; 0x1a66 <lcd_int32+0x152>
    1a6a:	00 00       	nop

      // output the sign, if we need to
      if (bSigned){sline[i++] = '-';}

      // now output the formatted number
      do{send_lcd(CHAR_BYTE, sline[--i]); _delay_us(40);} while(i);
    1a6c:	31 11       	cpse	r19, r1
    1a6e:	e5 cf       	rjmp	.-54     	; 0x1a3a <lcd_int32+0x126>

}
    1a70:	69 96       	adiw	r28, 0x19	; 25
    1a72:	0f b6       	in	r0, 0x3f	; 63
    1a74:	f8 94       	cli
    1a76:	de bf       	out	0x3e, r29	; 62
    1a78:	0f be       	out	0x3f, r0	; 63
    1a7a:	cd bf       	out	0x3d, r28	; 61
    1a7c:	df 91       	pop	r29
    1a7e:	cf 91       	pop	r28
    1a80:	1f 91       	pop	r17
    1a82:	0f 91       	pop	r16
    1a84:	ff 90       	pop	r15
    1a86:	ef 90       	pop	r14
    1a88:	df 90       	pop	r13
    1a8a:	cf 90       	pop	r12
    1a8c:	bf 90       	pop	r11
    1a8e:	af 90       	pop	r10
    1a90:	9f 90       	pop	r9
    1a92:	8f 90       	pop	r8
    1a94:	7f 90       	pop	r7
    1a96:	6f 90       	pop	r6
    1a98:	5f 90       	pop	r5
    1a9a:	4f 90       	pop	r4
    1a9c:	08 95       	ret
                uint8_t decpos,     //0 if no decimal point, otherwise
                uint8_t bSigned,    //non-zero if the number should be treated as signed 
                uint8_t bZeroFill)  //non-zero if a specified fieldwidth is to be zero filled
{
      char    sline[NUM_LCD_CHARS+1];
      uint8_t i=0;
    1a9e:	91 2c       	mov	r9, r1
    1aa0:	9e 01       	movw	r18, r28
    1aa2:	2f 5f       	subi	r18, 0xFF	; 255
    1aa4:	3f 4f       	sbci	r19, 0xFF	; 255
    1aa6:	59 01       	movw	r10, r18
    1aa8:	91 cf       	rjmp	.-222    	; 0x19cc <lcd_int32+0xb8>
          sline[i++] = qr.rem + '0';
        }while(qr.quot);

      // fill the whole field if a width was specified
      if (fieldwidth){
        fillch = bZeroFill? '0': ' '; // determine the fill character
    1aaa:	90 e3       	ldi	r25, 0x30	; 48
    1aac:	b4 cf       	rjmp	.-152    	; 0x1a16 <lcd_int32+0x102>

      qr.quot = l; // initialize the quotient 

      if (bSigned){
        bSigned = (qr.quot<0);
        qr.quot = labs(qr.quot);
    1aae:	f0 94       	com	r15
    1ab0:	e0 94       	com	r14
    1ab2:	d0 94       	com	r13
    1ab4:	c0 94       	com	r12
    1ab6:	c1 1c       	adc	r12, r1
    1ab8:	d1 1c       	adc	r13, r1
    1aba:	e1 1c       	adc	r14, r1
    1abc:	f1 1c       	adc	r15, r1
    1abe:	54 cf       	rjmp	.-344    	; 0x1968 <lcd_int32+0x54>

00001ac0 <lcd_int16>:
//**************************************************************************************
void    lcd_int16(int16_t l, 
                  uint8_t fieldwidth, 
                  uint8_t decpos, 
                  uint8_t bZeroFill)
{
    1ac0:	5f 92       	push	r5
    1ac2:	6f 92       	push	r6
    1ac4:	7f 92       	push	r7
    1ac6:	8f 92       	push	r8
    1ac8:	9f 92       	push	r9
    1aca:	af 92       	push	r10
    1acc:	bf 92       	push	r11
    1ace:	cf 92       	push	r12
    1ad0:	df 92       	push	r13
    1ad2:	ef 92       	push	r14
    1ad4:	ff 92       	push	r15
    1ad6:	0f 93       	push	r16
    1ad8:	1f 93       	push	r17
    1ada:	cf 93       	push	r28
    1adc:	df 93       	push	r29
    1ade:	cd b7       	in	r28, 0x3d	; 61
    1ae0:	de b7       	in	r29, 0x3e	; 62
    1ae2:	61 97       	sbiw	r28, 0x11	; 17
    1ae4:	0f b6       	in	r0, 0x3f	; 63
    1ae6:	f8 94       	cli
    1ae8:	de bf       	out	0x3e, r29	; 62
    1aea:	0f be       	out	0x3f, r0	; 63
    1aec:	cd bf       	out	0x3d, r28	; 61
    1aee:	5c 01       	movw	r10, r24
    1af0:	96 2e       	mov	r9, r22
    1af2:	54 2e       	mov	r5, r20
    1af4:	62 2e       	mov	r6, r18
        uint8_t bSigned;

        // initialize the quotient 
        qr.quot = l;

        if ( (bSigned=(qr.quot<0)) )
    1af6:	8b 2c       	mov	r8, r11
    1af8:	88 1c       	adc	r8, r8
    1afa:	88 24       	eor	r8, r8
    1afc:	88 1c       	adc	r8, r8
    1afe:	78 2c       	mov	r7, r8
    1b00:	9c 01       	movw	r18, r24
    1b02:	97 fd       	sbrc	r25, 7
    1b04:	9d c0       	rjmp	.+314    	; 0x1c40 <lcd_int16+0x180>
                qr.quot = -qr.quot;

        // convert the digits to the right of the decimal point 
        if (decpos){
    1b06:	55 20       	and	r5, r5
    1b08:	09 f4       	brne	.+2      	; 0x1b0c <lcd_int16+0x4c>
    1b0a:	8e c0       	rjmp	.+284    	; 0x1c28 <lcd_int16+0x168>
    1b0c:	8e 01       	movw	r16, r28
    1b0e:	0f 5f       	subi	r16, 0xFF	; 255
    1b10:	1f 4f       	sbci	r17, 0xFF	; 255
    1b12:	78 01       	movw	r14, r16
    1b14:	cc 24       	eor	r12, r12
    1b16:	ca 94       	dec	r12
    1b18:	c5 0c       	add	r12, r5
    1b1a:	d1 2c       	mov	r13, r1
    1b1c:	8f ef       	ldi	r24, 0xFF	; 255
    1b1e:	c8 1a       	sub	r12, r24
    1b20:	d8 0a       	sbc	r13, r24
    1b22:	c0 0e       	add	r12, r16
    1b24:	d1 1e       	adc	r13, r17
          for (; decpos ; decpos--){
            qr = div(qr.quot, 10);
    1b26:	6a e0       	ldi	r22, 0x0A	; 10
    1b28:	70 e0       	ldi	r23, 0x00	; 0
    1b2a:	c9 01       	movw	r24, r18
    1b2c:	0e 94 a2 10 	call	0x2144	; 0x2144 <__divmodhi4>
    1b30:	46 2f       	mov	r20, r22
    1b32:	24 2f       	mov	r18, r20
    1b34:	37 2f       	mov	r19, r23
            sline[i++] = qr.rem + '0';
    1b36:	80 5d       	subi	r24, 0xD0	; 208
    1b38:	f7 01       	movw	r30, r14
    1b3a:	81 93       	st	Z+, r24
    1b3c:	7f 01       	movw	r14, r30
        if ( (bSigned=(qr.quot<0)) )
                qr.quot = -qr.quot;

        // convert the digits to the right of the decimal point 
        if (decpos){
          for (; decpos ; decpos--){
    1b3e:	ec 15       	cp	r30, r12
    1b40:	fd 05       	cpc	r31, r13
    1b42:	89 f7       	brne	.-30     	; 0x1b26 <lcd_int16+0x66>
            qr = div(qr.quot, 10);
            sline[i++] = qr.rem + '0';
          }
          sline[i++] = '.';
    1b44:	ff 24       	eor	r15, r15
    1b46:	f3 94       	inc	r15
    1b48:	f5 0c       	add	r15, r5
    1b4a:	f8 01       	movw	r30, r16
    1b4c:	e5 0d       	add	r30, r5
    1b4e:	f1 1d       	adc	r31, r1
    1b50:	8e e2       	ldi	r24, 0x2E	; 46
    1b52:	80 83       	st	Z, r24
    1b54:	01 c0       	rjmp	.+2      	; 0x1b58 <lcd_int16+0x98>

        // convert the digits to the left of the decimal point 
        do
        {
                qr = div(qr.quot, 10);
                sline[i++] = qr.rem + '0';
    1b56:	f9 2e       	mov	r15, r25
        }

        // convert the digits to the left of the decimal point 
        do
        {
                qr = div(qr.quot, 10);
    1b58:	6a e0       	ldi	r22, 0x0A	; 10
    1b5a:	70 e0       	ldi	r23, 0x00	; 0
    1b5c:	c9 01       	movw	r24, r18
    1b5e:	0e 94 a2 10 	call	0x2144	; 0x2144 <__divmodhi4>
    1b62:	46 2f       	mov	r20, r22
    1b64:	24 2f       	mov	r18, r20
    1b66:	37 2f       	mov	r19, r23
                sline[i++] = qr.rem + '0';
    1b68:	91 e0       	ldi	r25, 0x01	; 1
    1b6a:	9f 0d       	add	r25, r15
    1b6c:	f8 01       	movw	r30, r16
    1b6e:	ef 0d       	add	r30, r15
    1b70:	f1 1d       	adc	r31, r1
    1b72:	80 5d       	subi	r24, 0xD0	; 208
    1b74:	80 83       	st	Z, r24
        }
        while(qr.quot);
    1b76:	21 15       	cp	r18, r1
    1b78:	31 05       	cpc	r19, r1
    1b7a:	69 f7       	brne	.-38     	; 0x1b56 <lcd_int16+0x96>

        // add the sign now if we don't pad the number with zeros 
        if (!bZeroFill && bSigned)
    1b7c:	61 10       	cpse	r6, r1
    1b7e:	59 c0       	rjmp	.+178    	; 0x1c32 <lcd_int16+0x172>
    1b80:	b7 fc       	sbrc	r11, 7
    1b82:	63 c0       	rjmp	.+198    	; 0x1c4a <lcd_int16+0x18a>
                sline[i++] = '-';
                bSigned = 0;
        }

        // fill the whole field if a width was specified 
        if (fieldwidth){
    1b84:	99 20       	and	r9, r9
    1b86:	b1 f0       	breq	.+44     	; 0x1bb4 <lcd_int16+0xf4>
    1b88:	68 2d       	mov	r22, r8
    1b8a:	70 e0       	ldi	r23, 0x00	; 0
          // determine the fill character 
          fillch = bZeroFill? '0': ' ';
    1b8c:	80 e2       	ldi	r24, 0x20	; 32
          for (; i<(fieldwidth-bSigned) ; ){ sline[i++] = fillch;}
    1b8e:	29 2f       	mov	r18, r25
    1b90:	30 e0       	ldi	r19, 0x00	; 0
    1b92:	49 2d       	mov	r20, r9
    1b94:	50 e0       	ldi	r21, 0x00	; 0
    1b96:	46 1b       	sub	r20, r22
    1b98:	57 0b       	sbc	r21, r23
    1b9a:	24 17       	cp	r18, r20
    1b9c:	35 07       	cpc	r19, r21
    1b9e:	54 f4       	brge	.+20     	; 0x1bb4 <lcd_int16+0xf4>
    1ba0:	9f 5f       	subi	r25, 0xFF	; 255
    1ba2:	f8 01       	movw	r30, r16
    1ba4:	e2 0f       	add	r30, r18
    1ba6:	f3 1f       	adc	r31, r19
    1ba8:	80 83       	st	Z, r24
    1baa:	29 2f       	mov	r18, r25
    1bac:	30 e0       	ldi	r19, 0x00	; 0
    1bae:	24 17       	cp	r18, r20
    1bb0:	35 07       	cpc	r19, r21
    1bb2:	b4 f3       	brlt	.-20     	; 0x1ba0 <lcd_int16+0xe0>
        }

        // output the sign, if we need to 
        if (bSigned){sline[i++] = '-';}
    1bb4:	77 20       	and	r7, r7
    1bb6:	31 f0       	breq	.+12     	; 0x1bc4 <lcd_int16+0x104>
    1bb8:	f8 01       	movw	r30, r16
    1bba:	e9 0f       	add	r30, r25
    1bbc:	f1 1d       	adc	r31, r1
    1bbe:	8d e2       	ldi	r24, 0x2D	; 45
    1bc0:	80 83       	st	Z, r24
    1bc2:	9f 5f       	subi	r25, 0xFF	; 255
// Commnads that require more time have delays built in for them.
//
void send_lcd(uint8_t cmd_or_char, uint8_t byte){

#if SPI_MODE==1
  SPDR = (cmd_or_char)? 0x01 : 0x00;  //send the proper value for intent
    1bc4:	21 e0       	ldi	r18, 0x01	; 1

        // output the sign, if we need to 
        if (bSigned){sline[i++] = '-';}

        // now output the formatted number 
            do{send_lcd(CHAR_BYTE, sline[--i]); _delay_us(40);} while(i);
    1bc6:	91 50       	subi	r25, 0x01	; 1
    1bc8:	f8 01       	movw	r30, r16
    1bca:	e9 0f       	add	r30, r25
    1bcc:	f1 1d       	adc	r31, r1
    1bce:	80 81       	ld	r24, Z
// Commnads that require more time have delays built in for them.
//
void send_lcd(uint8_t cmd_or_char, uint8_t byte){

#if SPI_MODE==1
  SPDR = (cmd_or_char)? 0x01 : 0x00;  //send the proper value for intent
    1bd0:	2f b9       	out	0x0f, r18	; 15
  while (bit_is_clear(SPSR,SPIF)){}   //wait till byte is sent out
    1bd2:	77 9b       	sbis	0x0e, 7	; 14
    1bd4:	fe cf       	rjmp	.-4      	; 0x1bd2 <lcd_int16+0x112>
  SPDR = byte;                        //send payload
    1bd6:	8f b9       	out	0x0f, r24	; 15
  while (bit_is_clear(SPSR,SPIF)){}   //wait till byte is sent out
    1bd8:	77 9b       	sbis	0x0e, 7	; 14
    1bda:	fe cf       	rjmp	.-4      	; 0x1bd8 <lcd_int16+0x118>
//pulse width for a 4 Mhz clock.
//TODO: make number of nops executed dependent on F_CPU, not hardcoded
//
void strobe_lcd(void){ 
#if SPI_MODE==1
 PORTF |=  0x08; PORTF &= ~0x08; //toggle port F bit 3, LCD strobe trigger
    1bdc:	80 91 62 00 	lds	r24, 0x0062	; 0x800062 <__TEXT_REGION_LENGTH__+0x7e0062>
    1be0:	88 60       	ori	r24, 0x08	; 8
    1be2:	80 93 62 00 	sts	0x0062, r24	; 0x800062 <__TEXT_REGION_LENGTH__+0x7e0062>
    1be6:	80 91 62 00 	lds	r24, 0x0062	; 0x800062 <__TEXT_REGION_LENGTH__+0x7e0062>
    1bea:	87 7f       	andi	r24, 0xF7	; 247
    1bec:	80 93 62 00 	sts	0x0062, r24	; 0x800062 <__TEXT_REGION_LENGTH__+0x7e0062>
    1bf0:	f5 ed       	ldi	r31, 0xD5	; 213
    1bf2:	fa 95       	dec	r31
    1bf4:	f1 f7       	brne	.-4      	; 0x1bf2 <lcd_int16+0x132>
    1bf6:	00 00       	nop

        // output the sign, if we need to 
        if (bSigned){sline[i++] = '-';}

        // now output the formatted number 
            do{send_lcd(CHAR_BYTE, sline[--i]); _delay_us(40);} while(i);
    1bf8:	91 11       	cpse	r25, r1
    1bfa:	e5 cf       	rjmp	.-54     	; 0x1bc6 <lcd_int16+0x106>
}
    1bfc:	61 96       	adiw	r28, 0x11	; 17
    1bfe:	0f b6       	in	r0, 0x3f	; 63
    1c00:	f8 94       	cli
    1c02:	de bf       	out	0x3e, r29	; 62
    1c04:	0f be       	out	0x3f, r0	; 63
    1c06:	cd bf       	out	0x3d, r28	; 61
    1c08:	df 91       	pop	r29
    1c0a:	cf 91       	pop	r28
    1c0c:	1f 91       	pop	r17
    1c0e:	0f 91       	pop	r16
    1c10:	ff 90       	pop	r15
    1c12:	ef 90       	pop	r14
    1c14:	df 90       	pop	r13
    1c16:	cf 90       	pop	r12
    1c18:	bf 90       	pop	r11
    1c1a:	af 90       	pop	r10
    1c1c:	9f 90       	pop	r9
    1c1e:	8f 90       	pop	r8
    1c20:	7f 90       	pop	r7
    1c22:	6f 90       	pop	r6
    1c24:	5f 90       	pop	r5
    1c26:	08 95       	ret
                  uint8_t fieldwidth, 
                  uint8_t decpos, 
                  uint8_t bZeroFill)
{
        char    sline[NUM_LCD_CHARS+1];
        uint8_t i=0;
    1c28:	f1 2c       	mov	r15, r1
    1c2a:	8e 01       	movw	r16, r28
    1c2c:	0f 5f       	subi	r16, 0xFF	; 255
    1c2e:	1f 4f       	sbci	r17, 0xFF	; 255
    1c30:	93 cf       	rjmp	.-218    	; 0x1b58 <lcd_int16+0x98>
                sline[i++] = '-';
                bSigned = 0;
        }

        // fill the whole field if a width was specified 
        if (fieldwidth){
    1c32:	99 20       	and	r9, r9
    1c34:	09 f4       	brne	.+2      	; 0x1c38 <lcd_int16+0x178>
    1c36:	be cf       	rjmp	.-132    	; 0x1bb4 <lcd_int16+0xf4>
    1c38:	68 2d       	mov	r22, r8
    1c3a:	70 e0       	ldi	r23, 0x00	; 0
          // determine the fill character 
          fillch = bZeroFill? '0': ' ';
    1c3c:	80 e3       	ldi	r24, 0x30	; 48
    1c3e:	a7 cf       	rjmp	.-178    	; 0x1b8e <lcd_int16+0xce>
    1c40:	22 27       	eor	r18, r18
    1c42:	33 27       	eor	r19, r19
    1c44:	28 1b       	sub	r18, r24
    1c46:	39 0b       	sbc	r19, r25
    1c48:	5e cf       	rjmp	.-324    	; 0x1b06 <lcd_int16+0x46>
        while(qr.quot);

        // add the sign now if we don't pad the number with zeros 
        if (!bZeroFill && bSigned)
        {
                sline[i++] = '-';
    1c4a:	f3 94       	inc	r15
    1c4c:	f3 94       	inc	r15
    1c4e:	f8 01       	movw	r30, r16
    1c50:	e9 0f       	add	r30, r25
    1c52:	f1 1d       	adc	r31, r1
    1c54:	8d e2       	ldi	r24, 0x2D	; 45
    1c56:	80 83       	st	Z, r24
                bSigned = 0;
        }

        // fill the whole field if a width was specified 
        if (fieldwidth){
    1c58:	99 20       	and	r9, r9
    1c5a:	59 f0       	breq	.+22     	; 0x1c72 <lcd_int16+0x1b2>
          // determine the fill character 
          fillch = bZeroFill? '0': ' ';
          for (; i<(fieldwidth-bSigned) ; ){ sline[i++] = fillch;}
    1c5c:	2f 2d       	mov	r18, r15
    1c5e:	30 e0       	ldi	r19, 0x00	; 0
    1c60:	49 2d       	mov	r20, r9
    1c62:	50 e0       	ldi	r21, 0x00	; 0
    1c64:	24 17       	cp	r18, r20
    1c66:	35 07       	cpc	r19, r21
    1c68:	24 f4       	brge	.+8      	; 0x1c72 <lcd_int16+0x1b2>
        while(qr.quot);

        // add the sign now if we don't pad the number with zeros 
        if (!bZeroFill && bSigned)
        {
                sline[i++] = '-';
    1c6a:	9f 2d       	mov	r25, r15
                bSigned = 0;
    1c6c:	71 2c       	mov	r7, r1
        }

        // fill the whole field if a width was specified 
        if (fieldwidth){
          // determine the fill character 
          fillch = bZeroFill? '0': ' ';
    1c6e:	80 e2       	ldi	r24, 0x20	; 32
    1c70:	97 cf       	rjmp	.-210    	; 0x1ba0 <lcd_int16+0xe0>
        while(qr.quot);

        // add the sign now if we don't pad the number with zeros 
        if (!bZeroFill && bSigned)
        {
                sline[i++] = '-';
    1c72:	9f 2d       	mov	r25, r15
    1c74:	a7 cf       	rjmp	.-178    	; 0x1bc4 <lcd_int16+0x104>

00001c76 <__vector_33>:

//****************************************************************************
//This is the TWI ISR. Different actions are taken depending upon the value
//of the TWI status register TWSR.
//****************************************************************************/
ISR(TWI_vect){
    1c76:	1f 92       	push	r1
    1c78:	0f 92       	push	r0
    1c7a:	0f b6       	in	r0, 0x3f	; 63
    1c7c:	0f 92       	push	r0
    1c7e:	11 24       	eor	r1, r1
    1c80:	0b b6       	in	r0, 0x3b	; 59
    1c82:	0f 92       	push	r0
    1c84:	2f 93       	push	r18
    1c86:	3f 93       	push	r19
    1c88:	8f 93       	push	r24
    1c8a:	9f 93       	push	r25
    1c8c:	af 93       	push	r26
    1c8e:	bf 93       	push	r27
    1c90:	ef 93       	push	r30
    1c92:	ff 93       	push	r31
  static uint8_t twi_buf_ptr;  //index into the buffer being used 

  switch (TWSR) {
    1c94:	e0 91 71 00 	lds	r30, 0x0071	; 0x800071 <__TEXT_REGION_LENGTH__+0x7e0071>
    1c98:	8e 2f       	mov	r24, r30
    1c9a:	90 e0       	ldi	r25, 0x00	; 0
    1c9c:	fc 01       	movw	r30, r24
    1c9e:	38 97       	sbiw	r30, 0x08	; 8
    1ca0:	e1 35       	cpi	r30, 0x51	; 81
    1ca2:	f1 05       	cpc	r31, r1
    1ca4:	b0 f0       	brcs	.+44     	; 0x1cd2 <__vector_33+0x5c>
      break;      
    case TW_MT_ARB_LOST:                //Arbitration lost 
      TWCR = TWCR_START;                //initiate RESTART 
      break;
    default:                            //Error occured, save TWSR 
      twi_state = TWSR;         
    1ca6:	80 91 71 00 	lds	r24, 0x0071	; 0x800071 <__TEXT_REGION_LENGTH__+0x7e0071>
    1caa:	80 93 7d 01 	sts	0x017D, r24	; 0x80017d <twi_state>
      TWCR = TWCR_RST;                  //Reset TWI, disable interupts 
    1cae:	84 e0       	ldi	r24, 0x04	; 4
    1cb0:	80 93 74 00 	sts	0x0074, r24	; 0x800074 <__TEXT_REGION_LENGTH__+0x7e0074>
  }//switch
}//TWI_isr
    1cb4:	ff 91       	pop	r31
    1cb6:	ef 91       	pop	r30
    1cb8:	bf 91       	pop	r27
    1cba:	af 91       	pop	r26
    1cbc:	9f 91       	pop	r25
    1cbe:	8f 91       	pop	r24
    1cc0:	3f 91       	pop	r19
    1cc2:	2f 91       	pop	r18
    1cc4:	0f 90       	pop	r0
    1cc6:	0b be       	out	0x3b, r0	; 59
    1cc8:	0f 90       	pop	r0
    1cca:	0f be       	out	0x3f, r0	; 63
    1ccc:	0f 90       	pop	r0
    1cce:	1f 90       	pop	r1
    1cd0:	18 95       	reti
//of the TWI status register TWSR.
//****************************************************************************/
ISR(TWI_vect){
  static uint8_t twi_buf_ptr;  //index into the buffer being used 

  switch (TWSR) {
    1cd2:	ec 52       	subi	r30, 0x2C	; 44
    1cd4:	ff 4f       	sbci	r31, 0xFF	; 255
    1cd6:	0c 94 d5 10 	jmp	0x21aa	; 0x21aa <__tablejump2__>
    case TW_MR_SLA_ACK:                 //SLA+R xmitted and ACK rcvd
      if (twi_buf_ptr < (twi_msg_size-1)){TWCR = TWCR_RACK;}  //ACK each byte
      else                               {TWCR = TWCR_RNACK;} //NACK last byte 
      break; 
    case TW_MR_DATA_NACK: //Data byte was rcvd and NACK xmitted
      twi_buf[twi_buf_ptr] = TWDR;      //save last byte to buffer
    1cda:	80 91 46 01 	lds	r24, 0x0146	; 0x800146 <twi_buf_ptr.1780>
    1cde:	e0 91 7e 01 	lds	r30, 0x017E	; 0x80017e <twi_buf>
    1ce2:	f0 91 7f 01 	lds	r31, 0x017F	; 0x80017f <twi_buf+0x1>
    1ce6:	e8 0f       	add	r30, r24
    1ce8:	f1 1d       	adc	r31, r1
    1cea:	80 91 73 00 	lds	r24, 0x0073	; 0x800073 <__TEXT_REGION_LENGTH__+0x7e0073>
    1cee:	80 83       	st	Z, r24
      TWCR = TWCR_STOP;                 //initiate a STOP
    1cf0:	84 e9       	ldi	r24, 0x94	; 148
    1cf2:	80 93 74 00 	sts	0x0074, r24	; 0x800074 <__TEXT_REGION_LENGTH__+0x7e0074>
      break;      
    1cf6:	de cf       	rjmp	.-68     	; 0x1cb4 <__vector_33+0x3e>
  static uint8_t twi_buf_ptr;  //index into the buffer being used 

  switch (TWSR) {
    case TW_START:          //START has been xmitted, fall thorough
    case TW_REP_START:      //Repeated START was xmitted
      TWDR = twi_bus_addr;  //load up the twi bus address
    1cf8:	80 91 80 01 	lds	r24, 0x0180	; 0x800180 <twi_bus_addr>
    1cfc:	80 93 73 00 	sts	0x0073, r24	; 0x800073 <__TEXT_REGION_LENGTH__+0x7e0073>
      twi_buf_ptr = 0;      //initalize buffer pointer 
    1d00:	10 92 46 01 	sts	0x0146, r1	; 0x800146 <twi_buf_ptr.1780>
      TWCR = TWCR_SEND;     //send SLA+RW
    1d04:	85 e8       	ldi	r24, 0x85	; 133
    1d06:	80 93 74 00 	sts	0x0074, r24	; 0x800074 <__TEXT_REGION_LENGTH__+0x7e0074>
      break;
    1d0a:	d4 cf       	rjmp	.-88     	; 0x1cb4 <__vector_33+0x3e>
    case TW_MT_SLA_ACK:     //SLA+W was xmitted and ACK rcvd, fall through 
    case TW_MT_DATA_ACK:                //Data byte was xmitted and ACK rcvd
      if (twi_buf_ptr < twi_msg_size){  //send data till done
    1d0c:	80 91 46 01 	lds	r24, 0x0146	; 0x800146 <twi_buf_ptr.1780>
    1d10:	90 91 81 01 	lds	r25, 0x0181	; 0x800181 <twi_msg_size>
    1d14:	89 17       	cp	r24, r25
    1d16:	60 f7       	brcc	.-40     	; 0x1cf0 <__vector_33+0x7a>
        TWDR = twi_buf[twi_buf_ptr++];  //load next and postincrement index
    1d18:	e0 91 7e 01 	lds	r30, 0x017E	; 0x80017e <twi_buf>
    1d1c:	f0 91 7f 01 	lds	r31, 0x017F	; 0x80017f <twi_buf+0x1>
    1d20:	91 e0       	ldi	r25, 0x01	; 1
    1d22:	98 0f       	add	r25, r24
    1d24:	90 93 46 01 	sts	0x0146, r25	; 0x800146 <twi_buf_ptr.1780>
    1d28:	e8 0f       	add	r30, r24
    1d2a:	f1 1d       	adc	r31, r1
    1d2c:	80 81       	ld	r24, Z
    1d2e:	80 93 73 00 	sts	0x0073, r24	; 0x800073 <__TEXT_REGION_LENGTH__+0x7e0073>
        TWCR = TWCR_SEND;               //send next byte 
    1d32:	85 e8       	ldi	r24, 0x85	; 133
    1d34:	80 93 74 00 	sts	0x0074, r24	; 0x800074 <__TEXT_REGION_LENGTH__+0x7e0074>
    1d38:	bd cf       	rjmp	.-134    	; 0x1cb4 <__vector_33+0x3e>
    case TW_MR_DATA_NACK: //Data byte was rcvd and NACK xmitted
      twi_buf[twi_buf_ptr] = TWDR;      //save last byte to buffer
      TWCR = TWCR_STOP;                 //initiate a STOP
      break;      
    case TW_MT_ARB_LOST:                //Arbitration lost 
      TWCR = TWCR_START;                //initiate RESTART 
    1d3a:	85 ea       	ldi	r24, 0xA5	; 165
    1d3c:	80 93 74 00 	sts	0x0074, r24	; 0x800074 <__TEXT_REGION_LENGTH__+0x7e0074>
      break;
    1d40:	b9 cf       	rjmp	.-142    	; 0x1cb4 <__vector_33+0x3e>
    1d42:	20 91 46 01 	lds	r18, 0x0146	; 0x800146 <twi_buf_ptr.1780>
      else{TWCR = TWCR_STOP;}           //last byte sent, send STOP 
      break;
    case TW_MR_DATA_ACK:                //Data byte has been rcvd, ACK xmitted, fall through
      twi_buf[twi_buf_ptr++] = TWDR;    //fill buffer with rcvd data
    case TW_MR_SLA_ACK:                 //SLA+R xmitted and ACK rcvd
      if (twi_buf_ptr < (twi_msg_size-1)){TWCR = TWCR_RACK;}  //ACK each byte
    1d46:	80 91 81 01 	lds	r24, 0x0181	; 0x800181 <twi_msg_size>
    1d4a:	30 e0       	ldi	r19, 0x00	; 0
    1d4c:	90 e0       	ldi	r25, 0x00	; 0
    1d4e:	01 97       	sbiw	r24, 0x01	; 1
    1d50:	28 17       	cp	r18, r24
    1d52:	39 07       	cpc	r19, r25
    1d54:	dc f4       	brge	.+54     	; 0x1d8c <__vector_33+0x116>
    1d56:	85 ec       	ldi	r24, 0xC5	; 197
    1d58:	80 93 74 00 	sts	0x0074, r24	; 0x800074 <__TEXT_REGION_LENGTH__+0x7e0074>
    1d5c:	ab cf       	rjmp	.-170    	; 0x1cb4 <__vector_33+0x3e>
        TWCR = TWCR_SEND;               //send next byte 
      }
      else{TWCR = TWCR_STOP;}           //last byte sent, send STOP 
      break;
    case TW_MR_DATA_ACK:                //Data byte has been rcvd, ACK xmitted, fall through
      twi_buf[twi_buf_ptr++] = TWDR;    //fill buffer with rcvd data
    1d5e:	e0 91 7e 01 	lds	r30, 0x017E	; 0x80017e <twi_buf>
    1d62:	f0 91 7f 01 	lds	r31, 0x017F	; 0x80017f <twi_buf+0x1>
    1d66:	80 91 46 01 	lds	r24, 0x0146	; 0x800146 <twi_buf_ptr.1780>
    1d6a:	21 e0       	ldi	r18, 0x01	; 1
    1d6c:	28 0f       	add	r18, r24
    1d6e:	20 93 46 01 	sts	0x0146, r18	; 0x800146 <twi_buf_ptr.1780>
    1d72:	e8 0f       	add	r30, r24
    1d74:	f1 1d       	adc	r31, r1
    1d76:	80 91 73 00 	lds	r24, 0x0073	; 0x800073 <__TEXT_REGION_LENGTH__+0x7e0073>
    1d7a:	80 83       	st	Z, r24
    case TW_MR_SLA_ACK:                 //SLA+R xmitted and ACK rcvd
      if (twi_buf_ptr < (twi_msg_size-1)){TWCR = TWCR_RACK;}  //ACK each byte
    1d7c:	80 91 81 01 	lds	r24, 0x0181	; 0x800181 <twi_msg_size>
    1d80:	30 e0       	ldi	r19, 0x00	; 0
    1d82:	90 e0       	ldi	r25, 0x00	; 0
    1d84:	01 97       	sbiw	r24, 0x01	; 1
    1d86:	28 17       	cp	r18, r24
    1d88:	39 07       	cpc	r19, r25
    1d8a:	2c f3       	brlt	.-54     	; 0x1d56 <__vector_33+0xe0>
      else                               {TWCR = TWCR_RNACK;} //NACK last byte 
    1d8c:	85 e8       	ldi	r24, 0x85	; 133
    1d8e:	80 93 74 00 	sts	0x0074, r24	; 0x800074 <__TEXT_REGION_LENGTH__+0x7e0074>
    1d92:	90 cf       	rjmp	.-224    	; 0x1cb4 <__vector_33+0x3e>

00001d94 <twi_busy>:
//Call this function to test if the TWI unit is busy transferring data. The TWI
//code uses the the interrupt enable bit (TWIE) to indicate if the TWI unit
//is busy or not.  This protocol must be maintained for correct operation.
//*****************************************************************************
uint8_t twi_busy(void){
  return (bit_is_set(TWCR,TWIE)); //if interrupt is enabled, twi is busy
    1d94:	80 91 74 00 	lds	r24, 0x0074	; 0x800074 <__TEXT_REGION_LENGTH__+0x7e0074>
}
    1d98:	81 70       	andi	r24, 0x01	; 1
    1d9a:	08 95       	ret

00001d9c <twi_start_wr>:
//Call this function to test if the TWI unit is busy transferring data. The TWI
//code uses the the interrupt enable bit (TWIE) to indicate if the TWI unit
//is busy or not.  This protocol must be maintained for correct operation.
//*****************************************************************************
uint8_t twi_busy(void){
  return (bit_is_set(TWCR,TWIE)); //if interrupt is enabled, twi is busy
    1d9c:	90 91 74 00 	lds	r25, 0x0074	; 0x800074 <__TEXT_REGION_LENGTH__+0x7e0074>
//Initiates a write transfer. Loads global variables. Sends START. ISR handles
//the rest.
//****************************************************************************
void twi_start_wr(uint8_t twi_addr, uint8_t *twi_data, uint8_t byte_cnt){

  while(twi_busy());                    //wait till TWI rdy for next xfer
    1da0:	90 fd       	sbrc	r25, 0
    1da2:	fc cf       	rjmp	.-8      	; 0x1d9c <twi_start_wr>
  twi_bus_addr = (twi_addr & ~TW_READ); //set twi bus address, mark as write 
    1da4:	8e 7f       	andi	r24, 0xFE	; 254
    1da6:	80 93 80 01 	sts	0x0180, r24	; 0x800180 <twi_bus_addr>
  twi_buf = twi_data;                   //load pointer to write buffer
    1daa:	70 93 7f 01 	sts	0x017F, r23	; 0x80017f <twi_buf+0x1>
    1dae:	60 93 7e 01 	sts	0x017E, r22	; 0x80017e <twi_buf>
  twi_msg_size = byte_cnt;              //load size of xfer 
    1db2:	40 93 81 01 	sts	0x0181, r20	; 0x800181 <twi_msg_size>
  TWCR = TWCR_START;                    //initiate START
    1db6:	85 ea       	ldi	r24, 0xA5	; 165
    1db8:	80 93 74 00 	sts	0x0074, r24	; 0x800074 <__TEXT_REGION_LENGTH__+0x7e0074>
    1dbc:	08 95       	ret

00001dbe <twi_start_rd>:
//Call this function to test if the TWI unit is busy transferring data. The TWI
//code uses the the interrupt enable bit (TWIE) to indicate if the TWI unit
//is busy or not.  This protocol must be maintained for correct operation.
//*****************************************************************************
uint8_t twi_busy(void){
  return (bit_is_set(TWCR,TWIE)); //if interrupt is enabled, twi is busy
    1dbe:	90 91 74 00 	lds	r25, 0x0074	; 0x800074 <__TEXT_REGION_LENGTH__+0x7e0074>
//Initiates a read transfer. Loads global variables. Sends START. ISR handles
//the rest.
//****************************************************************************
void twi_start_rd(uint8_t twi_addr, uint8_t *twi_data, uint8_t byte_cnt){

  while(twi_busy());                   //wait till TWI rdy for next xfer
    1dc2:	90 fd       	sbrc	r25, 0
    1dc4:	fc cf       	rjmp	.-8      	; 0x1dbe <twi_start_rd>
  twi_bus_addr = (twi_addr | TW_READ); //set twi bus address, mark as read  
    1dc6:	81 60       	ori	r24, 0x01	; 1
    1dc8:	80 93 80 01 	sts	0x0180, r24	; 0x800180 <twi_bus_addr>
  twi_buf = twi_data;                  //load pointer to write buffer
    1dcc:	70 93 7f 01 	sts	0x017F, r23	; 0x80017f <twi_buf+0x1>
    1dd0:	60 93 7e 01 	sts	0x017E, r22	; 0x80017e <twi_buf>
  twi_msg_size = byte_cnt;             //load size of xfer 
    1dd4:	40 93 81 01 	sts	0x0181, r20	; 0x800181 <twi_msg_size>
  TWCR = TWCR_START;                   //initiate START
    1dd8:	85 ea       	ldi	r24, 0xA5	; 165
    1dda:	80 93 74 00 	sts	0x0074, r24	; 0x800074 <__TEXT_REGION_LENGTH__+0x7e0074>
    1dde:	08 95       	ret

00001de0 <init_twi>:
//10K pullups are present on the board
//for alarm clock an additional 4.7K resistor is also there for pullup
//******************************************************************************

void init_twi(){
  TWDR = 0xFF;     //release SDA, default contents
    1de0:	8f ef       	ldi	r24, 0xFF	; 255
    1de2:	80 93 73 00 	sts	0x0073, r24	; 0x800073 <__TEXT_REGION_LENGTH__+0x7e0073>
  TWSR = 0x00;     //prescaler value = 1
    1de6:	10 92 71 00 	sts	0x0071, r1	; 0x800071 <__TEXT_REGION_LENGTH__+0x7e0071>
  TWBR = TWI_TWBR; //defined in twi_master.h 
    1dea:	8c e0       	ldi	r24, 0x0C	; 12
    1dec:	80 93 70 00 	sts	0x0070, r24	; 0x800070 <__TEXT_REGION_LENGTH__+0x7e0070>
    1df0:	08 95       	ret

00001df2 <uart_putc>:
//                        uart_putc
//
// Takes a character and sends it to USART0
//
void uart_putc(char data) {
    while (!(UCSR0A&(1<<UDRE0)));    // Wait for previous transmissions
    1df2:	5d 9b       	sbis	0x0b, 5	; 11
    1df4:	fe cf       	rjmp	.-4      	; 0x1df2 <uart_putc>
    UDR0 = data;    // Send data byte
    1df6:	8c b9       	out	0x0c, r24	; 12
    while (!(UCSR0A&(1<<UDRE0)));    // Wait for previous transmissions
    1df8:	5d 9b       	sbis	0x0b, 5	; 11
    1dfa:	fe cf       	rjmp	.-4      	; 0x1df8 <uart_putc+0x6>
}
    1dfc:	08 95       	ret

00001dfe <uart_puts>:

//******************************************************************
//                        uart_puts
// Takes a string and sends each charater to be sent to USART0
//void uart_puts(unsigned char *str) {
void uart_puts(char *str) {
    1dfe:	fc 01       	movw	r30, r24
    int i = 0;
    while(str[i] != '\0') { // Loop through string, sending each character
    1e00:	90 81       	ld	r25, Z
    1e02:	99 23       	and	r25, r25
    1e04:	49 f0       	breq	.+18     	; 0x1e18 <uart_puts+0x1a>
    1e06:	31 96       	adiw	r30, 0x01	; 1
//                        uart_putc
//
// Takes a character and sends it to USART0
//
void uart_putc(char data) {
    while (!(UCSR0A&(1<<UDRE0)));    // Wait for previous transmissions
    1e08:	5d 9b       	sbis	0x0b, 5	; 11
    1e0a:	fe cf       	rjmp	.-4      	; 0x1e08 <uart_puts+0xa>
    UDR0 = data;    // Send data byte
    1e0c:	9c b9       	out	0x0c, r25	; 12
    while (!(UCSR0A&(1<<UDRE0)));    // Wait for previous transmissions
    1e0e:	5d 9b       	sbis	0x0b, 5	; 11
    1e10:	fe cf       	rjmp	.-4      	; 0x1e0e <uart_puts+0x10>
//                        uart_puts
// Takes a string and sends each charater to be sent to USART0
//void uart_puts(unsigned char *str) {
void uart_puts(char *str) {
    int i = 0;
    while(str[i] != '\0') { // Loop through string, sending each character
    1e12:	91 91       	ld	r25, Z+
    1e14:	91 11       	cpse	r25, r1
    1e16:	f8 cf       	rjmp	.-16     	; 0x1e08 <uart_puts+0xa>
    1e18:	08 95       	ret

00001e1a <uart_puts_p>:
//******************************************************************
//                        uart_puts_p
// Takes a string in flash memory and sends each charater to be sent to USART0
//void uart_puts(unsigned char *str) {
void uart_puts_p(const char *str) {
    while(pgm_read_byte(str) != 0x00) { // Loop through string, sending each character
    1e1a:	9c 01       	movw	r18, r24
    1e1c:	fc 01       	movw	r30, r24
    1e1e:	44 91       	lpm	r20, Z
    1e20:	44 23       	and	r20, r20
    1e22:	69 f0       	breq	.+26     	; 0x1e3e <uart_puts_p+0x24>
        uart_putc(pgm_read_byte(str++));
    1e24:	01 96       	adiw	r24, 0x01	; 1
    1e26:	f9 01       	movw	r30, r18
    1e28:	24 91       	lpm	r18, Z
//                        uart_putc
//
// Takes a character and sends it to USART0
//
void uart_putc(char data) {
    while (!(UCSR0A&(1<<UDRE0)));    // Wait for previous transmissions
    1e2a:	5d 9b       	sbis	0x0b, 5	; 11
    1e2c:	fe cf       	rjmp	.-4      	; 0x1e2a <uart_puts_p+0x10>
    UDR0 = data;    // Send data byte
    1e2e:	2c b9       	out	0x0c, r18	; 12
    while (!(UCSR0A&(1<<UDRE0)));    // Wait for previous transmissions
    1e30:	5d 9b       	sbis	0x0b, 5	; 11
    1e32:	fe cf       	rjmp	.-4      	; 0x1e30 <uart_puts_p+0x16>
//******************************************************************
//                        uart_puts_p
// Takes a string in flash memory and sends each charater to be sent to USART0
//void uart_puts(unsigned char *str) {
void uart_puts_p(const char *str) {
    while(pgm_read_byte(str) != 0x00) { // Loop through string, sending each character
    1e34:	9c 01       	movw	r18, r24
    1e36:	fc 01       	movw	r30, r24
    1e38:	44 91       	lpm	r20, Z
    1e3a:	41 11       	cpse	r20, r1
    1e3c:	f3 cf       	rjmp	.-26     	; 0x1e24 <uart_puts_p+0xa>
        uart_putc(pgm_read_byte(str++));
    }
}
    1e3e:	08 95       	ret

00001e40 <uart_init>:
//must be in place for the MAX232 chip to get data.

void uart_init(){
//rx and tx enable, receive interrupt enabled, 8 bit characters
//  UCSR0B |= (1<<RXEN0) | (1<<TXEN0) | (1<<RXCIE0);
  UCSR0B |= (1<<RXEN0) | (1<<TXEN0);  //INTERRUPS DISABLED!!!
    1e40:	8a b1       	in	r24, 0x0a	; 10
    1e42:	88 61       	ori	r24, 0x18	; 24
    1e44:	8a b9       	out	0x0a, r24	; 10

//  UCSR0B |= (1<<RXEN0) | (1<<TXEN0) ;
//async operation, no parity,  one stop bit, 8-bit characters
UCSR0C |= (1<<UCSZ01) | (1<<UCSZ00);
    1e46:	e5 e9       	ldi	r30, 0x95	; 149
    1e48:	f0 e0       	ldi	r31, 0x00	; 0
    1e4a:	80 81       	ld	r24, Z
    1e4c:	86 60       	ori	r24, 0x06	; 6
    1e4e:	80 83       	st	Z, r24
UBRR0H = (BAUDVALUE >>8 ); //load upper byte of the baud rate into UBRR 
    1e50:	10 92 90 00 	sts	0x0090, r1	; 0x800090 <__TEXT_REGION_LENGTH__+0x7e0090>
UBRR0L =  BAUDVALUE;       //load lower byte of the baud rate into UBRR 
    1e54:	80 e1       	ldi	r24, 0x10	; 16
    1e56:	89 b9       	out	0x09, r24	; 9
    1e58:	08 95       	ret

00001e5a <uart_getc>:
//Modified to not block indefinately in the case of a lost byte
//
char uart_getc(void) {
  uint16_t timer = 0;

  while (!(UCSR0A & (1<<RXC0))) {
    1e5a:	80 e8       	ldi	r24, 0x80	; 128
    1e5c:	9e e3       	ldi	r25, 0x3E	; 62
    1e5e:	02 c0       	rjmp	.+4      	; 0x1e64 <uart_getc+0xa>
    1e60:	01 97       	sbiw	r24, 0x01	; 1
  timer++;
  if(timer >= 16000){ return(0);}
    1e62:	21 f0       	breq	.+8      	; 0x1e6c <uart_getc+0x12>
//Modified to not block indefinately in the case of a lost byte
//
char uart_getc(void) {
  uint16_t timer = 0;

  while (!(UCSR0A & (1<<RXC0))) {
    1e64:	5f 9b       	sbis	0x0b, 7	; 11
    1e66:	fc cf       	rjmp	.-8      	; 0x1e60 <uart_getc+0x6>
  //what should we return if nothing comes in?
  //return the data into a global variable
  //give uart_getc the address of the variable
  //return a -1 if no data comes back.
  } // Wait for byte to arrive
  return(UDR0); //return the received data
    1e68:	8c b1       	in	r24, 0x0c	; 12
    1e6a:	08 95       	ret
char uart_getc(void) {
  uint16_t timer = 0;

  while (!(UCSR0A & (1<<RXC0))) {
  timer++;
  if(timer >= 16000){ return(0);}
    1e6c:	80 e0       	ldi	r24, 0x00	; 0
  //return the data into a global variable
  //give uart_getc the address of the variable
  //return a -1 if no data comes back.
  } // Wait for byte to arrive
  return(UDR0); //return the received data
}
    1e6e:	08 95       	ret

00001e70 <lm73_temp_convert>:
    1e70:	80 e0       	ldi	r24, 0x00	; 0
    1e72:	08 95       	ret

00001e74 <main>:
}

//***********************************************************************************
int main()
{
init();
    1e74:	0e 94 51 09 	call	0x12a2	; 0x12a2 <init>
uint8_t  currentDisplayDigit = 0;       //Current LED to display on (0 == 1's digit
uint16_t displayValue = 0;	        //Current value to display on LEDs
uint16_t alarmValue = 1;	        //Current value held by the alarm
uint8_t  alarmActivated = OFF;		//If the Alarm is ON or OFF, initialize to OFF
uint8_t  alarmON = OFF;
uint8_t  alarmSET = ON;
    1e78:	bb 24       	eor	r11, r11
    1e7a:	b3 94       	inc	r11
init();
uint8_t  currentButtonsPressed = 0;	//Stores buttons that are currently pressed (holds value when pressed)
uint8_t  currentDisplayDigit = 0;       //Current LED to display on (0 == 1's digit
uint16_t displayValue = 0;	        //Current value to display on LEDs
uint16_t alarmValue = 1;	        //Current value held by the alarm
uint8_t  alarmActivated = OFF;		//If the Alarm is ON or OFF, initialize to OFF
    1e7c:	00 e0       	ldi	r16, 0x00	; 0
{
init();
uint8_t  currentButtonsPressed = 0;	//Stores buttons that are currently pressed (holds value when pressed)
uint8_t  currentDisplayDigit = 0;       //Current LED to display on (0 == 1's digit
uint16_t displayValue = 0;	        //Current value to display on LEDs
uint16_t alarmValue = 1;	        //Current value held by the alarm
    1e7e:	ee 24       	eor	r14, r14
    1e80:	e3 94       	inc	r14
    1e82:	f1 2c       	mov	r15, r1
int main()
{
init();
uint8_t  currentButtonsPressed = 0;	//Stores buttons that are currently pressed (holds value when pressed)
uint8_t  currentDisplayDigit = 0;       //Current LED to display on (0 == 1's digit
uint16_t displayValue = 0;	        //Current value to display on LEDs
    1e84:	d0 e0       	ldi	r29, 0x00	; 0
    1e86:	71 2c       	mov	r7, r1
//***********************************************************************************
int main()
{
init();
uint8_t  currentButtonsPressed = 0;	//Stores buttons that are currently pressed (holds value when pressed)
uint8_t  currentDisplayDigit = 0;       //Current LED to display on (0 == 1's digit
    1e88:	10 e0       	ldi	r17, 0x00	; 0

//***********************************************************************************
int main()
{
init();
uint8_t  currentButtonsPressed = 0;	//Stores buttons that are currently pressed (holds value when pressed)
    1e8a:	c0 e0       	ldi	r28, 0x00	; 0
    1e8c:	b4 e6       	ldi	r27, 0x64	; 100
    1e8e:	cb 2e       	mov	r12, r27
    1e90:	84 ec       	ldi	r24, 0xC4	; 196
    1e92:	d8 2e       	mov	r13, r24
      if(alarmActivated)
      {
        TCCR1B &= (0 << CS11);
        TCCR1B &= (0 << CS12);
        OCR3C   = 0;
	snoozeFlag = SNOOZEON;	
    1e94:	88 24       	eor	r8, r8
    1e96:	83 94       	inc	r8
  // Restart Mode (restarts everything) 
  }else if(currentButtonsPressed == 0x02)
  {
      alarmActivated = OFF;
      snoozeFlag = SNOOZEOFF;
      segment_data[2] |= (0xFF);      
    1e98:	99 24       	eor	r9, r9
    1e9a:	9a 94       	dec	r9
  if(ADCH >= 400)
  {
    OCR2 = 5;
  }else if(ADCH < 20)
  {
    OCR2 = 240;	  
    1e9c:	90 ef       	ldi	r25, 0xF0	; 240
    1e9e:	a9 2e       	mov	r10, r25
    1ea0:	10 c0       	rjmp	.+32     	; 0x1ec2 <main+0x4e>
    1ea2:	a3 bc       	out	0x23, r10	; 35
    OCR2 = 255- ADCH;
  }
  //OCR2  = ADCH//395 + (2 * (450 - ADCH));	   

  // Turn ON alarm if SNOOZE timedout
  if(snoozeFlag == SNOOZEALARM)
    1ea4:	80 91 30 01 	lds	r24, 0x0130	; 0x800130 <snoozeFlag>
    1ea8:	82 30       	cpi	r24, 0x02	; 2
    1eaa:	09 f4       	brne	.+2      	; 0x1eae <main+0x3a>
    1eac:	49 c0       	rjmp	.+146    	; 0x1f40 <main+0xcc>
    alarmActivated = ON;
  }

  // Alarm is reached and activated, either by timer or by snooze reached
  // Play alarm
  if(alarmActivated && ((currentTime == alarmValue) || (snoozeFlag == SNOOZEALARM)) && (snoozeFlag != SNOOZEON) && (currentButtonsPressed != 0x01))
    1eae:	01 11       	cpse	r16, r1
    1eb0:	47 c0       	rjmp	.+142    	; 0x1f40 <main+0xcc>
 
  // Turn minute input to HH:MM 
  displayValue = ClockCounterCorrection(displayValue);
  
  // Display to LED screen
  segsum(displayValue);						//Divide the decimal value to the segment_data[] array
    1eb2:	8d 2f       	mov	r24, r29
    1eb4:	97 2d       	mov	r25, r7
    1eb6:	0e 94 e3 06 	call	0xdc6	; 0xdc6 <segsum>
  currentDisplayDigit = displaySwitch(currentDisplayDigit);	//Display the current values stored in segment_data[] to current LED 
    1eba:	81 2f       	mov	r24, r17
    1ebc:	0e 94 92 07 	call	0xf24	; 0xf24 <displaySwitch>
    1ec0:	18 2f       	mov	r17, r24
uint8_t  alarmOffset = 0;
while(1){
  
  // Button Functionality
  // Pole Buttons
  currentButtonsPressed = ButtonCheck(currentButtonsPressed);
    1ec2:	8c 2f       	mov	r24, r28
    1ec4:	0e 94 d3 07 	call	0xfa6	; 0xfa6 <ButtonCheck>
    1ec8:	c8 2f       	mov	r28, r24
  
  // Buttons (1):
  // Enter Setting mode (sets time or alarm)
  if(currentButtonsPressed == 0x01)
    1eca:	81 30       	cpi	r24, 0x01	; 1
    1ecc:	09 f4       	brne	.+2      	; 0x1ed0 <main+0x5c>
    1ece:	b1 c0       	rjmp	.+354    	; 0x2032 <main+0x1be>
  {
      alarmValue   = AlarmSetMode(alarmOffset);
      displayValue = alarmValue;   
  // Buttons (2):
  // Restart Mode (restarts everything) 
  }else if(currentButtonsPressed == 0x02)
    1ed0:	82 30       	cpi	r24, 0x02	; 2
    1ed2:	09 f4       	brne	.+2      	; 0x1ed6 <main+0x62>
    1ed4:	cd c0       	rjmp	.+410    	; 0x2070 <main+0x1fc>
      alarmON = OFF;
      clear_display();
  
  // Buttons (1, 2):
  // Sets Alarm 
  }else if(currentButtonsPressed == 0x03)
    1ed6:	83 30       	cpi	r24, 0x03	; 3
    1ed8:	09 f4       	brne	.+2      	; 0x1edc <main+0x68>
    1eda:	f8 c0       	rjmp	.+496    	; 0x20cc <main+0x258>
      clear_display();
      string2lcd("ALARM");
  
  // Buttons (3):
  // SNOOZE if Alarm is Set/On    
  }else if(currentButtonsPressed == 0x04)
    1edc:	84 30       	cpi	r24, 0x04	; 4
    1ede:	09 f4       	brne	.+2      	; 0x1ee2 <main+0x6e>
    1ee0:	5a c0       	rjmp	.+180    	; 0x1f96 <main+0x122>
      }
      currentButtonsPressed = (0x00);
  
  // Buttons (1, 3):
  // Set Time
  }else if(currentButtonsPressed == 0x05)
    1ee2:	85 30       	cpi	r24, 0x05	; 5
    1ee4:	09 f4       	brne	.+2      	; 0x1ee8 <main+0x74>
    1ee6:	82 c0       	rjmp	.+260    	; 0x1fec <main+0x178>
    currentTime = AlarmSetMode(alarmOffset);
    currentButtonsPressed = (0x00);
  
  // Display CurrentTime
  
  }else if(currentButtonsPressed == 0x08)
    1ee8:	88 30       	cpi	r24, 0x08	; 8
    1eea:	09 f4       	brne	.+2      	; 0x1eee <main+0x7a>
    1eec:	d4 c0       	rjmp	.+424    	; 0x2096 <main+0x222>
  {
    //alarmOffset ^= 0x01;
    //currentButtonsPressed = (0x00);
  }else{
    displayValue = currentTime;
    1eee:	40 91 2e 01 	lds	r20, 0x012E	; 0x80012e <__data_end>
    1ef2:	50 91 2f 01 	lds	r21, 0x012F	; 0x80012f <__data_end+0x1>
    1ef6:	9a 01       	movw	r18, r20
    1ef8:	a9 e8       	ldi	r26, 0x89	; 137
    1efa:	b8 e8       	ldi	r27, 0x88	; 136
    1efc:	0e 94 de 10 	call	0x21bc	; 0x21bc <__umulhisi3>
    1f00:	96 95       	lsr	r25
    1f02:	87 95       	ror	r24
    1f04:	92 95       	swap	r25
    1f06:	82 95       	swap	r24
    1f08:	8f 70       	andi	r24, 0x0F	; 15
    1f0a:	89 27       	eor	r24, r25
    1f0c:	9f 70       	andi	r25, 0x0F	; 15
    1f0e:	89 27       	eor	r24, r25
    1f10:	d8 9e       	mul	r13, r24
    1f12:	40 0d       	add	r20, r0
    1f14:	11 24       	eor	r1, r1
    1f16:	50 e0       	ldi	r21, 0x00	; 0
    1f18:	8c 9d       	mul	r24, r12
    1f1a:	40 0d       	add	r20, r0
    1f1c:	51 1d       	adc	r21, r1
    1f1e:	11 24       	eor	r1, r1
    1f20:	d4 2f       	mov	r29, r20
    1f22:	75 2e       	mov	r7, r21
    currentButtonsPressed = (0x00);    
    1f24:	c0 e0       	ldi	r28, 0x00	; 0
  }

  // Brightness of LED based off Photoresistor
  if(ADCH >= 400)
    1f26:	85 b1       	in	r24, 0x05	; 5
  {
    OCR2 = 5;
  }else if(ADCH < 20)
    1f28:	85 b1       	in	r24, 0x05	; 5
    1f2a:	84 31       	cpi	r24, 0x14	; 20
    1f2c:	08 f4       	brcc	.+2      	; 0x1f30 <main+0xbc>
    1f2e:	b9 cf       	rjmp	.-142    	; 0x1ea2 <main+0x2e>
  {
    OCR2 = 240;	  
  }else{
    OCR2 = 255- ADCH;
    1f30:	85 b1       	in	r24, 0x05	; 5
    1f32:	80 95       	com	r24
    1f34:	83 bd       	out	0x23, r24	; 35
  }
  //OCR2  = ADCH//395 + (2 * (450 - ADCH));	   

  // Turn ON alarm if SNOOZE timedout
  if(snoozeFlag == SNOOZEALARM)
    1f36:	80 91 30 01 	lds	r24, 0x0130	; 0x800130 <snoozeFlag>
    1f3a:	82 30       	cpi	r24, 0x02	; 2
    1f3c:	09 f0       	breq	.+2      	; 0x1f40 <main+0xcc>
    1f3e:	b7 cf       	rjmp	.-146    	; 0x1eae <main+0x3a>
    alarmActivated = ON;
  }

  // Alarm is reached and activated, either by timer or by snooze reached
  // Play alarm
  if(alarmActivated && ((currentTime == alarmValue) || (snoozeFlag == SNOOZEALARM)) && (snoozeFlag != SNOOZEON) && (currentButtonsPressed != 0x01))
    1f40:	80 91 2e 01 	lds	r24, 0x012E	; 0x80012e <__data_end>
    1f44:	90 91 2f 01 	lds	r25, 0x012F	; 0x80012f <__data_end+0x1>
    1f48:	e8 16       	cp	r14, r24
    1f4a:	f9 06       	cpc	r15, r25
    1f4c:	41 f0       	breq	.+16     	; 0x1f5e <main+0xea>
    1f4e:	80 91 30 01 	lds	r24, 0x0130	; 0x800130 <snoozeFlag>
    1f52:	82 30       	cpi	r24, 0x02	; 2
    1f54:	21 f0       	breq	.+8      	; 0x1f5e <main+0xea>
    OCR3C   = VolumeSetMode();
    alarmON = ON;
  }
  
  // Display 'ALARM' on LCD
  if(alarmActivated && alarmSET)
    1f56:	b1 10       	cpse	r11, r1
    1f58:	13 c0       	rjmp	.+38     	; 0x1f80 <main+0x10c>
    1f5a:	01 e0       	ldi	r16, 0x01	; 1
    1f5c:	aa cf       	rjmp	.-172    	; 0x1eb2 <main+0x3e>
    alarmActivated = ON;
  }

  // Alarm is reached and activated, either by timer or by snooze reached
  // Play alarm
  if(alarmActivated && ((currentTime == alarmValue) || (snoozeFlag == SNOOZEALARM)) && (snoozeFlag != SNOOZEON) && (currentButtonsPressed != 0x01))
    1f5e:	80 91 30 01 	lds	r24, 0x0130	; 0x800130 <snoozeFlag>
    1f62:	81 30       	cpi	r24, 0x01	; 1
    1f64:	c1 f3       	breq	.-16     	; 0x1f56 <main+0xe2>
    1f66:	c1 30       	cpi	r28, 0x01	; 1
    1f68:	b1 f3       	breq	.-20     	; 0x1f56 <main+0xe2>
  {
    TCCR1B |= (1 << WGM12) | (1<<CS11) | (1<<CS10); 		//CTC mode clear at TOP immediate
    1f6a:	8e b5       	in	r24, 0x2e	; 46
    1f6c:	8b 60       	ori	r24, 0x0B	; 11
    1f6e:	8e bd       	out	0x2e, r24	; 46
    OCR3C   = VolumeSetMode();
    1f70:	0e 94 1d 09 	call	0x123a	; 0x123a <VolumeSetMode>
    1f74:	90 93 83 00 	sts	0x0083, r25	; 0x800083 <__TEXT_REGION_LENGTH__+0x7e0083>
    1f78:	80 93 82 00 	sts	0x0082, r24	; 0x800082 <__TEXT_REGION_LENGTH__+0x7e0082>
    alarmON = ON;
  }
  
  // Display 'ALARM' on LCD
  if(alarmActivated && alarmSET)
    1f7c:	bb 20       	and	r11, r11
    1f7e:	69 f3       	breq	.-38     	; 0x1f5a <main+0xe6>
  {
    music_on();
    1f80:	0e 94 ad 06 	call	0xd5a	; 0xd5a <music_on>
    clear_display();
    1f84:	0e 94 1b 0b 	call	0x1636	; 0x1636 <clear_display>
    string2lcd("ALARM");
    1f88:	88 e2       	ldi	r24, 0x28	; 40
    1f8a:	91 e0       	ldi	r25, 0x01	; 1
    1f8c:	0e 94 9b 0b 	call	0x1736	; 0x1736 <string2lcd>
    1f90:	01 e0       	ldi	r16, 0x01	; 1
    alarmSET = OFF; 
    1f92:	b1 2c       	mov	r11, r1
    1f94:	8e cf       	rjmp	.-228    	; 0x1eb2 <main+0x3e>
  
  // Buttons (3):
  // SNOOZE if Alarm is Set/On    
  }else if(currentButtonsPressed == 0x04)
  {
      if(alarmActivated)
    1f96:	00 23       	and	r16, r16
    1f98:	81 f1       	breq	.+96     	; 0x1ffa <main+0x186>
      {
        TCCR1B &= (0 << CS11);
    1f9a:	8e b5       	in	r24, 0x2e	; 46
    1f9c:	1e bc       	out	0x2e, r1	; 46
        TCCR1B &= (0 << CS12);
    1f9e:	8e b5       	in	r24, 0x2e	; 46
    1fa0:	1e bc       	out	0x2e, r1	; 46
        OCR3C   = 0;
    1fa2:	10 92 83 00 	sts	0x0083, r1	; 0x800083 <__TEXT_REGION_LENGTH__+0x7e0083>
    1fa6:	10 92 82 00 	sts	0x0082, r1	; 0x800082 <__TEXT_REGION_LENGTH__+0x7e0082>
	snoozeFlag = SNOOZEON;	
    1faa:	80 92 30 01 	sts	0x0130, r8	; 0x800130 <snoozeFlag>
    1fae:	2d 2f       	mov	r18, r29
    1fb0:	37 2d       	mov	r19, r7
    1fb2:	a9 e8       	ldi	r26, 0x89	; 137
    1fb4:	b8 e8       	ldi	r27, 0x88	; 136
    1fb6:	0e 94 de 10 	call	0x21bc	; 0x21bc <__umulhisi3>
    1fba:	9c 01       	movw	r18, r24
    1fbc:	36 95       	lsr	r19
    1fbe:	27 95       	ror	r18
    1fc0:	32 95       	swap	r19
    1fc2:	22 95       	swap	r18
    1fc4:	2f 70       	andi	r18, 0x0F	; 15
    1fc6:	23 27       	eor	r18, r19
    1fc8:	3f 70       	andi	r19, 0x0F	; 15
    1fca:	23 27       	eor	r18, r19
    1fcc:	d2 9e       	mul	r13, r18
    1fce:	d0 0d       	add	r29, r0
    1fd0:	11 24       	eor	r1, r1
    1fd2:	8d 2f       	mov	r24, r29
    1fd4:	90 e0       	ldi	r25, 0x00	; 0
    1fd6:	2c 9d       	mul	r18, r12
    1fd8:	80 0d       	add	r24, r0
    1fda:	91 1d       	adc	r25, r1
    1fdc:	11 24       	eor	r1, r1
    1fde:	d8 2f       	mov	r29, r24
    1fe0:	79 2e       	mov	r7, r25
        alarmSET = ON;
    1fe2:	bb 24       	eor	r11, r11
    1fe4:	b3 94       	inc	r11
      if(alarmActivated)
      {
        TCCR1B &= (0 << CS11);
        TCCR1B &= (0 << CS12);
        OCR3C   = 0;
	snoozeFlag = SNOOZEON;	
    1fe6:	01 e0       	ldi	r16, 0x01	; 1
        alarmSET = ON;
      }
      currentButtonsPressed = (0x00);
    1fe8:	c0 e0       	ldi	r28, 0x00	; 0
    1fea:	9d cf       	rjmp	.-198    	; 0x1f26 <main+0xb2>
  
  // Buttons (1, 3):
  // Set Time
  }else if(currentButtonsPressed == 0x05)
  {
    currentTime = AlarmSetMode(alarmOffset);
    1fec:	80 e0       	ldi	r24, 0x00	; 0
    1fee:	0e 94 d5 08 	call	0x11aa	; 0x11aa <AlarmSetMode>
    1ff2:	90 93 2f 01 	sts	0x012F, r25	; 0x80012f <__data_end+0x1>
    1ff6:	80 93 2e 01 	sts	0x012E, r24	; 0x80012e <__data_end>
    1ffa:	2d 2f       	mov	r18, r29
    1ffc:	37 2d       	mov	r19, r7
    1ffe:	a9 e8       	ldi	r26, 0x89	; 137
    2000:	b8 e8       	ldi	r27, 0x88	; 136
    2002:	0e 94 de 10 	call	0x21bc	; 0x21bc <__umulhisi3>
    2006:	9c 01       	movw	r18, r24
    2008:	36 95       	lsr	r19
    200a:	27 95       	ror	r18
    200c:	32 95       	swap	r19
    200e:	22 95       	swap	r18
    2010:	2f 70       	andi	r18, 0x0F	; 15
    2012:	23 27       	eor	r18, r19
    2014:	3f 70       	andi	r19, 0x0F	; 15
    2016:	23 27       	eor	r18, r19
    2018:	d2 9e       	mul	r13, r18
    201a:	d0 0d       	add	r29, r0
    201c:	11 24       	eor	r1, r1
    201e:	8d 2f       	mov	r24, r29
    2020:	90 e0       	ldi	r25, 0x00	; 0
    2022:	2c 9d       	mul	r18, r12
    2024:	80 0d       	add	r24, r0
    2026:	91 1d       	adc	r25, r1
    2028:	11 24       	eor	r1, r1
    202a:	d8 2f       	mov	r29, r24
    202c:	79 2e       	mov	r7, r25
    currentButtonsPressed = (0x00);
    202e:	c0 e0       	ldi	r28, 0x00	; 0
    2030:	7a cf       	rjmp	.-268    	; 0x1f26 <main+0xb2>
  
  // Buttons (1):
  // Enter Setting mode (sets time or alarm)
  if(currentButtonsPressed == 0x01)
  {
      alarmValue   = AlarmSetMode(alarmOffset);
    2032:	80 e0       	ldi	r24, 0x00	; 0
    2034:	0e 94 d5 08 	call	0x11aa	; 0x11aa <AlarmSetMode>
    2038:	7c 01       	movw	r14, r24
    203a:	9c 01       	movw	r18, r24
    203c:	a9 e8       	ldi	r26, 0x89	; 137
    203e:	b8 e8       	ldi	r27, 0x88	; 136
    2040:	0e 94 de 10 	call	0x21bc	; 0x21bc <__umulhisi3>
    2044:	9c 01       	movw	r18, r24
    2046:	36 95       	lsr	r19
    2048:	27 95       	ror	r18
    204a:	32 95       	swap	r19
    204c:	22 95       	swap	r18
    204e:	2f 70       	andi	r18, 0x0F	; 15
    2050:	23 27       	eor	r18, r19
    2052:	3f 70       	andi	r19, 0x0F	; 15
    2054:	23 27       	eor	r18, r19
    2056:	9e 2d       	mov	r25, r14
    2058:	d2 9e       	mul	r13, r18
    205a:	90 0d       	add	r25, r0
    205c:	11 24       	eor	r1, r1
    205e:	89 2f       	mov	r24, r25
    2060:	90 e0       	ldi	r25, 0x00	; 0
    2062:	2c 9d       	mul	r18, r12
    2064:	80 0d       	add	r24, r0
    2066:	91 1d       	adc	r25, r1
    2068:	11 24       	eor	r1, r1
    206a:	d8 2f       	mov	r29, r24
    206c:	79 2e       	mov	r7, r25
    206e:	5b cf       	rjmp	.-330    	; 0x1f26 <main+0xb2>
  // Buttons (2):
  // Restart Mode (restarts everything) 
  }else if(currentButtonsPressed == 0x02)
  {
      alarmActivated = OFF;
      snoozeFlag = SNOOZEOFF;
    2070:	10 92 30 01 	sts	0x0130, r1	; 0x800130 <snoozeFlag>
      segment_data[2] |= (0xFF);      
    2074:	90 92 25 01 	sts	0x0125, r9	; 0x800125 <segment_data+0x2>
      currentButtonsPressed = (0x00);
      OCR3C = 0;
    2078:	10 92 83 00 	sts	0x0083, r1	; 0x800083 <__TEXT_REGION_LENGTH__+0x7e0083>
    207c:	10 92 82 00 	sts	0x0082, r1	; 0x800082 <__TEXT_REGION_LENGTH__+0x7e0082>
      currentDisplayDigit = 0;       
      displayValue = 0;	        
      alarmValue = 1;	        
      alarmActivated = OFF;
      alarmON = OFF;
      clear_display();
    2080:	0e 94 1b 0b 	call	0x1636	; 0x1636 <clear_display>
    2084:	d0 e0       	ldi	r29, 0x00	; 0
    2086:	71 2c       	mov	r7, r1
      OCR3C = 0;
      currentButtonsPressed = 0;	
      currentDisplayDigit = 0;       
      displayValue = 0;	        
      alarmValue = 1;	        
      alarmActivated = OFF;
    2088:	00 e0       	ldi	r16, 0x00	; 0
      currentButtonsPressed = (0x00);
      OCR3C = 0;
      currentButtonsPressed = 0;	
      currentDisplayDigit = 0;       
      displayValue = 0;	        
      alarmValue = 1;	        
    208a:	ee 24       	eor	r14, r14
    208c:	e3 94       	inc	r14
    208e:	f1 2c       	mov	r15, r1
      snoozeFlag = SNOOZEOFF;
      segment_data[2] |= (0xFF);      
      currentButtonsPressed = (0x00);
      OCR3C = 0;
      currentButtonsPressed = 0;	
      currentDisplayDigit = 0;       
    2090:	10 e0       	ldi	r17, 0x00	; 0
      alarmActivated = OFF;
      snoozeFlag = SNOOZEOFF;
      segment_data[2] |= (0xFF);      
      currentButtonsPressed = (0x00);
      OCR3C = 0;
      currentButtonsPressed = 0;	
    2092:	c0 e0       	ldi	r28, 0x00	; 0
    2094:	48 cf       	rjmp	.-368    	; 0x1f26 <main+0xb2>
    2096:	2d 2f       	mov	r18, r29
    2098:	37 2d       	mov	r19, r7
    209a:	a9 e8       	ldi	r26, 0x89	; 137
    209c:	b8 e8       	ldi	r27, 0x88	; 136
    209e:	0e 94 de 10 	call	0x21bc	; 0x21bc <__umulhisi3>
    20a2:	9c 01       	movw	r18, r24
    20a4:	36 95       	lsr	r19
    20a6:	27 95       	ror	r18
    20a8:	32 95       	swap	r19
    20aa:	22 95       	swap	r18
    20ac:	2f 70       	andi	r18, 0x0F	; 15
    20ae:	23 27       	eor	r18, r19
    20b0:	3f 70       	andi	r19, 0x0F	; 15
    20b2:	23 27       	eor	r18, r19
    20b4:	d2 9e       	mul	r13, r18
    20b6:	d0 0d       	add	r29, r0
    20b8:	11 24       	eor	r1, r1
    20ba:	8d 2f       	mov	r24, r29
    20bc:	90 e0       	ldi	r25, 0x00	; 0
    20be:	2c 9d       	mul	r18, r12
    20c0:	80 0d       	add	r24, r0
    20c2:	91 1d       	adc	r25, r1
    20c4:	11 24       	eor	r1, r1
    currentTime = AlarmSetMode(alarmOffset);
    currentButtonsPressed = (0x00);
  
  // Display CurrentTime
  
  }else if(currentButtonsPressed == 0x08)
    20c6:	d8 2f       	mov	r29, r24
    20c8:	79 2e       	mov	r7, r25
    20ca:	2d cf       	rjmp	.-422    	; 0x1f26 <main+0xb2>
  // Buttons (1, 2):
  // Sets Alarm 
  }else if(currentButtonsPressed == 0x03)
  {
      alarmActivated = ON;
      segment_data[2] &= 0xFB;      
    20cc:	80 91 25 01 	lds	r24, 0x0125	; 0x800125 <segment_data+0x2>
    20d0:	8b 7f       	andi	r24, 0xFB	; 251
    20d2:	80 93 25 01 	sts	0x0125, r24	; 0x800125 <segment_data+0x2>
      currentButtonsPressed = (0x00);
      clear_display();
    20d6:	0e 94 1b 0b 	call	0x1636	; 0x1636 <clear_display>
      string2lcd("ALARM");
    20da:	88 e2       	ldi	r24, 0x28	; 40
    20dc:	91 e0       	ldi	r25, 0x01	; 1
    20de:	0e 94 9b 0b 	call	0x1736	; 0x1736 <string2lcd>
    20e2:	2d 2f       	mov	r18, r29
    20e4:	37 2d       	mov	r19, r7
    20e6:	a9 e8       	ldi	r26, 0x89	; 137
    20e8:	b8 e8       	ldi	r27, 0x88	; 136
    20ea:	0e 94 de 10 	call	0x21bc	; 0x21bc <__umulhisi3>
    20ee:	9c 01       	movw	r18, r24
    20f0:	36 95       	lsr	r19
    20f2:	27 95       	ror	r18
    20f4:	32 95       	swap	r19
    20f6:	22 95       	swap	r18
    20f8:	2f 70       	andi	r18, 0x0F	; 15
    20fa:	23 27       	eor	r18, r19
    20fc:	3f 70       	andi	r19, 0x0F	; 15
    20fe:	23 27       	eor	r18, r19
    2100:	d2 9e       	mul	r13, r18
    2102:	d0 0d       	add	r29, r0
    2104:	11 24       	eor	r1, r1
    2106:	8d 2f       	mov	r24, r29
    2108:	90 e0       	ldi	r25, 0x00	; 0
    210a:	2c 9d       	mul	r18, r12
    210c:	80 0d       	add	r24, r0
    210e:	91 1d       	adc	r25, r1
    2110:	11 24       	eor	r1, r1
    2112:	d8 2f       	mov	r29, r24
    2114:	79 2e       	mov	r7, r25
  
  // Buttons (1, 2):
  // Sets Alarm 
  }else if(currentButtonsPressed == 0x03)
  {
      alarmActivated = ON;
    2116:	01 e0       	ldi	r16, 0x01	; 1
      segment_data[2] &= 0xFB;      
      currentButtonsPressed = (0x00);
    2118:	c0 e0       	ldi	r28, 0x00	; 0
    211a:	05 cf       	rjmp	.-502    	; 0x1f26 <main+0xb2>

0000211c <__udivmodhi4>:
    211c:	aa 1b       	sub	r26, r26
    211e:	bb 1b       	sub	r27, r27
    2120:	51 e1       	ldi	r21, 0x11	; 17
    2122:	07 c0       	rjmp	.+14     	; 0x2132 <__udivmodhi4_ep>

00002124 <__udivmodhi4_loop>:
    2124:	aa 1f       	adc	r26, r26
    2126:	bb 1f       	adc	r27, r27
    2128:	a6 17       	cp	r26, r22
    212a:	b7 07       	cpc	r27, r23
    212c:	10 f0       	brcs	.+4      	; 0x2132 <__udivmodhi4_ep>
    212e:	a6 1b       	sub	r26, r22
    2130:	b7 0b       	sbc	r27, r23

00002132 <__udivmodhi4_ep>:
    2132:	88 1f       	adc	r24, r24
    2134:	99 1f       	adc	r25, r25
    2136:	5a 95       	dec	r21
    2138:	a9 f7       	brne	.-22     	; 0x2124 <__udivmodhi4_loop>
    213a:	80 95       	com	r24
    213c:	90 95       	com	r25
    213e:	bc 01       	movw	r22, r24
    2140:	cd 01       	movw	r24, r26
    2142:	08 95       	ret

00002144 <__divmodhi4>:
    2144:	97 fb       	bst	r25, 7
    2146:	07 2e       	mov	r0, r23
    2148:	16 f4       	brtc	.+4      	; 0x214e <__divmodhi4+0xa>
    214a:	00 94       	com	r0
    214c:	07 d0       	rcall	.+14     	; 0x215c <__divmodhi4_neg1>
    214e:	77 fd       	sbrc	r23, 7
    2150:	09 d0       	rcall	.+18     	; 0x2164 <__divmodhi4_neg2>
    2152:	0e 94 8e 10 	call	0x211c	; 0x211c <__udivmodhi4>
    2156:	07 fc       	sbrc	r0, 7
    2158:	05 d0       	rcall	.+10     	; 0x2164 <__divmodhi4_neg2>
    215a:	3e f4       	brtc	.+14     	; 0x216a <__divmodhi4_exit>

0000215c <__divmodhi4_neg1>:
    215c:	90 95       	com	r25
    215e:	81 95       	neg	r24
    2160:	9f 4f       	sbci	r25, 0xFF	; 255
    2162:	08 95       	ret

00002164 <__divmodhi4_neg2>:
    2164:	70 95       	com	r23
    2166:	61 95       	neg	r22
    2168:	7f 4f       	sbci	r23, 0xFF	; 255

0000216a <__divmodhi4_exit>:
    216a:	08 95       	ret

0000216c <__divmodsi4>:
    216c:	05 2e       	mov	r0, r21
    216e:	97 fb       	bst	r25, 7
    2170:	1e f4       	brtc	.+6      	; 0x2178 <__divmodsi4+0xc>
    2172:	00 94       	com	r0
    2174:	0e 94 cd 10 	call	0x219a	; 0x219a <__negsi2>
    2178:	57 fd       	sbrc	r21, 7
    217a:	07 d0       	rcall	.+14     	; 0x218a <__divmodsi4_neg2>
    217c:	0e 94 ed 10 	call	0x21da	; 0x21da <__udivmodsi4>
    2180:	07 fc       	sbrc	r0, 7
    2182:	03 d0       	rcall	.+6      	; 0x218a <__divmodsi4_neg2>
    2184:	4e f4       	brtc	.+18     	; 0x2198 <__divmodsi4_exit>
    2186:	0c 94 cd 10 	jmp	0x219a	; 0x219a <__negsi2>

0000218a <__divmodsi4_neg2>:
    218a:	50 95       	com	r21
    218c:	40 95       	com	r20
    218e:	30 95       	com	r19
    2190:	21 95       	neg	r18
    2192:	3f 4f       	sbci	r19, 0xFF	; 255
    2194:	4f 4f       	sbci	r20, 0xFF	; 255
    2196:	5f 4f       	sbci	r21, 0xFF	; 255

00002198 <__divmodsi4_exit>:
    2198:	08 95       	ret

0000219a <__negsi2>:
    219a:	90 95       	com	r25
    219c:	80 95       	com	r24
    219e:	70 95       	com	r23
    21a0:	61 95       	neg	r22
    21a2:	7f 4f       	sbci	r23, 0xFF	; 255
    21a4:	8f 4f       	sbci	r24, 0xFF	; 255
    21a6:	9f 4f       	sbci	r25, 0xFF	; 255
    21a8:	08 95       	ret

000021aa <__tablejump2__>:
    21aa:	ee 0f       	add	r30, r30
    21ac:	ff 1f       	adc	r31, r31
    21ae:	00 24       	eor	r0, r0
    21b0:	00 1c       	adc	r0, r0
    21b2:	0b be       	out	0x3b, r0	; 59
    21b4:	07 90       	elpm	r0, Z+
    21b6:	f6 91       	elpm	r31, Z
    21b8:	e0 2d       	mov	r30, r0
    21ba:	09 94       	ijmp

000021bc <__umulhisi3>:
    21bc:	a2 9f       	mul	r26, r18
    21be:	b0 01       	movw	r22, r0
    21c0:	b3 9f       	mul	r27, r19
    21c2:	c0 01       	movw	r24, r0
    21c4:	a3 9f       	mul	r26, r19
    21c6:	70 0d       	add	r23, r0
    21c8:	81 1d       	adc	r24, r1
    21ca:	11 24       	eor	r1, r1
    21cc:	91 1d       	adc	r25, r1
    21ce:	b2 9f       	mul	r27, r18
    21d0:	70 0d       	add	r23, r0
    21d2:	81 1d       	adc	r24, r1
    21d4:	11 24       	eor	r1, r1
    21d6:	91 1d       	adc	r25, r1
    21d8:	08 95       	ret

000021da <__udivmodsi4>:
    21da:	a1 e2       	ldi	r26, 0x21	; 33
    21dc:	1a 2e       	mov	r1, r26
    21de:	aa 1b       	sub	r26, r26
    21e0:	bb 1b       	sub	r27, r27
    21e2:	fd 01       	movw	r30, r26
    21e4:	0d c0       	rjmp	.+26     	; 0x2200 <__udivmodsi4_ep>

000021e6 <__udivmodsi4_loop>:
    21e6:	aa 1f       	adc	r26, r26
    21e8:	bb 1f       	adc	r27, r27
    21ea:	ee 1f       	adc	r30, r30
    21ec:	ff 1f       	adc	r31, r31
    21ee:	a2 17       	cp	r26, r18
    21f0:	b3 07       	cpc	r27, r19
    21f2:	e4 07       	cpc	r30, r20
    21f4:	f5 07       	cpc	r31, r21
    21f6:	20 f0       	brcs	.+8      	; 0x2200 <__udivmodsi4_ep>
    21f8:	a2 1b       	sub	r26, r18
    21fa:	b3 0b       	sbc	r27, r19
    21fc:	e4 0b       	sbc	r30, r20
    21fe:	f5 0b       	sbc	r31, r21

00002200 <__udivmodsi4_ep>:
    2200:	66 1f       	adc	r22, r22
    2202:	77 1f       	adc	r23, r23
    2204:	88 1f       	adc	r24, r24
    2206:	99 1f       	adc	r25, r25
    2208:	1a 94       	dec	r1
    220a:	69 f7       	brne	.-38     	; 0x21e6 <__udivmodsi4_loop>
    220c:	60 95       	com	r22
    220e:	70 95       	com	r23
    2210:	80 95       	com	r24
    2212:	90 95       	com	r25
    2214:	9b 01       	movw	r18, r22
    2216:	ac 01       	movw	r20, r24
    2218:	bd 01       	movw	r22, r26
    221a:	cf 01       	movw	r24, r30
    221c:	08 95       	ret

0000221e <_exit>:
    221e:	f8 94       	cli

00002220 <__stop_program>:
    2220:	ff cf       	rjmp	.-2      	; 0x2220 <__stop_program>
